ARM GAS  C:\Users\marti\AppData\Local\Temp\ccZc8QGb.s 			page 1


   1              		.syntax unified
   2              		.cpu cortex-m3
   3              		.fpu softvfp
   4              		.eabi_attribute 20, 1
   5              		.eabi_attribute 21, 1
   6              		.eabi_attribute 23, 3
   7              		.eabi_attribute 24, 1
   8              		.eabi_attribute 25, 1
   9              		.eabi_attribute 26, 1
  10              		.eabi_attribute 30, 1
  11              		.eabi_attribute 34, 1
  12              		.eabi_attribute 18, 4
  13              		.thumb
  14              		.syntax unified
  15              		.file	"main.c"
  16              		.text
  17              	.Ltext0:
  18              		.cfi_sections	.debug_frame
  19              		.section	.text.isr_timer_handler,"ax",%progbits
  20              		.align	2
  21              		.global	isr_timer_handler
  22              		.thumb
  23              		.thumb_func
  24              		.type	isr_timer_handler, %function
  25              	isr_timer_handler:
  26              	.LFB64:
  27              		.file 1 "main.c"
   1:main.c        **** /* ========================================
   2:main.c        ****  *
   3:main.c        ****  * Copyright YOUR COMPANY, THE YEAR
   4:main.c        ****  * All Rights Reserved
   5:main.c        ****  * UNPUBLISHED, LICENSED SOFTWARE.
   6:main.c        ****  *
   7:main.c        ****  * CONFIDENTIAL AND PROPRIETARY INFORMATION
   8:main.c        ****  * WHICH IS THE PROPERTY OF your company.
   9:main.c        ****  *
  10:main.c        ****  * ========================================
  11:main.c        **** */
  12:main.c        **** #include "project.h"
  13:main.c        **** 
  14:main.c        **** CY_ISR_PROTO(ISR_UART_rx_handler);
  15:main.c        **** CY_ISR_PROTO(isr_timer_handler);
  16:main.c        **** void handleByteReceived(uint8_t byteReceived);
  17:main.c        **** void decreaseSpeed(void);
  18:main.c        **** void increaseSpeed(void);
  19:main.c        **** void driveForwards(void);
  20:main.c        **** void driveBackwards(void);
  21:main.c        **** void stop(void);
  22:main.c        **** static int speed = 0;
  23:main.c        **** void wave(void);
  24:main.c        **** void fullstep(void);
  25:main.c        **** void halfstep(void);
  26:main.c        **** typedef enum
  27:main.c        **** {
  28:main.c        ****     _0grader,
  29:main.c        **** 	_45grader,
  30:main.c        ****     _90grader,
ARM GAS  C:\Users\marti\AppData\Local\Temp\ccZc8QGb.s 			page 2


  31:main.c        ****     _135grader,
  32:main.c        ****     _180grader,
  33:main.c        ****     _225grader,
  34:main.c        ****     _270grader,
  35:main.c        ****     _315grader
  36:main.c        **** } POSITION;
  37:main.c        **** 
  38:main.c        **** typedef enum
  39:main.c        **** {
  40:main.c        **** 	FORWARD,
  41:main.c        **** 	BACKWARD
  42:main.c        **** } DIRECTION;
  43:main.c        **** 
  44:main.c        **** 
  45:main.c        **** int main(void)
  46:main.c        **** {
  47:main.c        ****     CyGlobalIntEnable; /* Enable global interrupts. */
  48:main.c        **** 
  49:main.c        ****     /* Place your initialization/startup code here (e.g. MyInst_Start()) */
  50:main.c        ****     isr_uart_rx_StartEx(ISR_UART_rx_handler);
  51:main.c        ****     isr_timer_StartEx(isr_timer_handler);
  52:main.c        ****     UART_1_Start();
  53:main.c        ****     PWM_1_Start();
  54:main.c        ****     
  55:main.c        ****     UART_1_PutString("DC-Motor-PWM application started\r\n");
  56:main.c        ****     UART_1_PutString("0: Stop\r\n");
  57:main.c        ****     UART_1_PutString("1: Drive forwards\r\n");
  58:main.c        ****     UART_1_PutString("2: Drive backwards\r\n");
  59:main.c        ****     UART_1_PutString("q: Decrease speed\r\n");
  60:main.c        ****     UART_1_PutString("w: Increase speed\r\n");
  61:main.c        ****     
  62:main.c        ****     UART_1_PutString("6: Wave\r\n");
  63:main.c        ****     UART_1_PutString("7: fullstep\r\n");
  64:main.c        ****     UART_1_PutString("8: halfstep\r\n");
  65:main.c        **** 
  66:main.c        ****     for(;;)
  67:main.c        ****     {
  68:main.c        ****         /* Place your application code here. */
  69:main.c        ****     }
  70:main.c        **** }
  71:main.c        **** 
  72:main.c        **** CY_ISR(isr_timer_handler) {
  28              		.loc 1 72 0
  29              		.cfi_startproc
  30              		@ args = 0, pretend = 0, frame = 0
  31              		@ frame_needed = 0, uses_anonymous_args = 0
  32              		@ link register save eliminated.
  33 0000 7047     		bx	lr
  34              		.cfi_endproc
  35              	.LFE64:
  36              		.size	isr_timer_handler, .-isr_timer_handler
  37 0002 00BF     		.section	.text.main,"ax",%progbits
  38              		.align	2
  39              		.global	main
  40              		.thumb
  41              		.thumb_func
  42              		.type	main, %function
ARM GAS  C:\Users\marti\AppData\Local\Temp\ccZc8QGb.s 			page 3


  43              	main:
  44              	.LFB63:
  46:main.c        ****     CyGlobalIntEnable; /* Enable global interrupts. */
  45              		.loc 1 46 0
  46              		.cfi_startproc
  47              		@ Volatile: function does not return.
  48              		@ args = 0, pretend = 0, frame = 0
  49              		@ frame_needed = 0, uses_anonymous_args = 0
  46:main.c        ****     CyGlobalIntEnable; /* Enable global interrupts. */
  50              		.loc 1 46 0
  51 0000 08B5     		push	{r3, lr}
  52              		.cfi_def_cfa_offset 8
  53              		.cfi_offset 3, -8
  54              		.cfi_offset 14, -4
  47:main.c        **** 
  55              		.loc 1 47 0
  56              		.syntax unified
  57              	@ 47 "main.c" 1
  58 0002 62B6     		CPSIE   i
  59              	@ 0 "" 2
  50:main.c        ****     isr_timer_StartEx(isr_timer_handler);
  60              		.loc 1 50 0
  61              		.thumb
  62              		.syntax unified
  63 0004 1248     		ldr	r0, .L5
  64 0006 FFF7FEFF 		bl	isr_uart_rx_StartEx
  65              	.LVL0:
  51:main.c        ****     UART_1_Start();
  66              		.loc 1 51 0
  67 000a 1248     		ldr	r0, .L5+4
  68 000c FFF7FEFF 		bl	isr_timer_StartEx
  69              	.LVL1:
  52:main.c        ****     PWM_1_Start();
  70              		.loc 1 52 0
  71 0010 FFF7FEFF 		bl	UART_1_Start
  72              	.LVL2:
  53:main.c        ****     
  73              		.loc 1 53 0
  74 0014 FFF7FEFF 		bl	PWM_1_Start
  75              	.LVL3:
  55:main.c        ****     UART_1_PutString("0: Stop\r\n");
  76              		.loc 1 55 0
  77 0018 0F48     		ldr	r0, .L5+8
  78 001a FFF7FEFF 		bl	UART_1_PutString
  79              	.LVL4:
  56:main.c        ****     UART_1_PutString("1: Drive forwards\r\n");
  80              		.loc 1 56 0
  81 001e 0F48     		ldr	r0, .L5+12
  82 0020 FFF7FEFF 		bl	UART_1_PutString
  83              	.LVL5:
  57:main.c        ****     UART_1_PutString("2: Drive backwards\r\n");
  84              		.loc 1 57 0
  85 0024 0E48     		ldr	r0, .L5+16
  86 0026 FFF7FEFF 		bl	UART_1_PutString
  87              	.LVL6:
  58:main.c        ****     UART_1_PutString("q: Decrease speed\r\n");
  88              		.loc 1 58 0
ARM GAS  C:\Users\marti\AppData\Local\Temp\ccZc8QGb.s 			page 4


  89 002a 0E48     		ldr	r0, .L5+20
  90 002c FFF7FEFF 		bl	UART_1_PutString
  91              	.LVL7:
  59:main.c        ****     UART_1_PutString("w: Increase speed\r\n");
  92              		.loc 1 59 0
  93 0030 0D48     		ldr	r0, .L5+24
  94 0032 FFF7FEFF 		bl	UART_1_PutString
  95              	.LVL8:
  60:main.c        ****     
  96              		.loc 1 60 0
  97 0036 0D48     		ldr	r0, .L5+28
  98 0038 FFF7FEFF 		bl	UART_1_PutString
  99              	.LVL9:
  62:main.c        ****     UART_1_PutString("7: fullstep\r\n");
 100              		.loc 1 62 0
 101 003c 0C48     		ldr	r0, .L5+32
 102 003e FFF7FEFF 		bl	UART_1_PutString
 103              	.LVL10:
  63:main.c        ****     UART_1_PutString("8: halfstep\r\n");
 104              		.loc 1 63 0
 105 0042 0C48     		ldr	r0, .L5+36
 106 0044 FFF7FEFF 		bl	UART_1_PutString
 107              	.LVL11:
  64:main.c        **** 
 108              		.loc 1 64 0
 109 0048 0B48     		ldr	r0, .L5+40
 110 004a FFF7FEFF 		bl	UART_1_PutString
 111              	.LVL12:
 112              	.L3:
 113 004e FEE7     		b	.L3
 114              	.L6:
 115              		.align	2
 116              	.L5:
 117 0050 00000000 		.word	ISR_UART_rx_handler
 118 0054 00000000 		.word	isr_timer_handler
 119 0058 00000000 		.word	.LC0
 120 005c 24000000 		.word	.LC1
 121 0060 30000000 		.word	.LC2
 122 0064 44000000 		.word	.LC3
 123 0068 5C000000 		.word	.LC4
 124 006c 70000000 		.word	.LC5
 125 0070 84000000 		.word	.LC6
 126 0074 90000000 		.word	.LC7
 127 0078 A0000000 		.word	.LC8
 128              		.cfi_endproc
 129              	.LFE63:
 130              		.size	main, .-main
 131              		.section	.text.decreaseSpeed,"ax",%progbits
 132              		.align	2
 133              		.global	decreaseSpeed
 134              		.thumb
 135              		.thumb_func
 136              		.type	decreaseSpeed, %function
 137              	decreaseSpeed:
 138              	.LFB67:
  73:main.c        ****     
  74:main.c        **** }
ARM GAS  C:\Users\marti\AppData\Local\Temp\ccZc8QGb.s 			page 5


  75:main.c        **** CY_ISR(ISR_UART_rx_handler)
  76:main.c        **** {
  77:main.c        ****     uint8_t bytesToRead = UART_1_GetRxBufferSize();
  78:main.c        ****     while (bytesToRead > 0)
  79:main.c        ****     {
  80:main.c        ****         uint8_t byteReceived = UART_1_ReadRxData();
  81:main.c        ****         UART_1_WriteTxData(byteReceived); // echo back
  82:main.c        ****         
  83:main.c        ****         handleByteReceived(byteReceived);
  84:main.c        ****         
  85:main.c        ****         bytesToRead--;
  86:main.c        ****     }
  87:main.c        **** }
  88:main.c        **** 
  89:main.c        **** void handleByteReceived(uint8_t byteReceived)
  90:main.c        **** {
  91:main.c        ****     switch(byteReceived)
  92:main.c        ****     {
  93:main.c        ****         case 'q' :
  94:main.c        ****         {
  95:main.c        ****             decreaseSpeed();
  96:main.c        ****         }
  97:main.c        ****         break;
  98:main.c        ****         case 'w' :
  99:main.c        ****         {
 100:main.c        ****             increaseSpeed();
 101:main.c        ****         }
 102:main.c        ****         break;
 103:main.c        ****         case '1' :
 104:main.c        ****         {
 105:main.c        ****             driveForwards();
 106:main.c        ****         }
 107:main.c        ****         break;
 108:main.c        ****         case '2' :
 109:main.c        ****         {
 110:main.c        ****             driveBackwards();
 111:main.c        ****         }
 112:main.c        ****         break;
 113:main.c        ****         case '0' :
 114:main.c        ****         {
 115:main.c        ****             stop();
 116:main.c        ****             
 117:main.c        ****         }
 118:main.c        ****         break;
 119:main.c        ****         
 120:main.c        ****         case '6' :
 121:main.c        ****         {
 122:main.c        ****             wave();
 123:main.c        ****             
 124:main.c        ****         }
 125:main.c        ****         break;
 126:main.c        ****         
 127:main.c        ****         case '7' :
 128:main.c        ****         {
 129:main.c        ****             fullstep();
 130:main.c        ****             
 131:main.c        ****         }
ARM GAS  C:\Users\marti\AppData\Local\Temp\ccZc8QGb.s 			page 6


 132:main.c        ****         break;
 133:main.c        ****         
 134:main.c        ****         case '8' :
 135:main.c        ****         {
 136:main.c        ****             halfstep();
 137:main.c        ****             
 138:main.c        ****         }
 139:main.c        ****         break;
 140:main.c        ****         default :
 141:main.c        ****         {
 142:main.c        ****             // nothing
 143:main.c        ****         }
 144:main.c        ****         break;
 145:main.c        ****     }
 146:main.c        **** }
 147:main.c        **** 
 148:main.c        **** void decreaseSpeed()
 149:main.c        **** {
 139              		.loc 1 149 0
 140              		.cfi_startproc
 141              		@ args = 0, pretend = 0, frame = 0
 142              		@ frame_needed = 0, uses_anonymous_args = 0
 143 0000 08B5     		push	{r3, lr}
 144              		.cfi_def_cfa_offset 8
 145              		.cfi_offset 3, -8
 146              		.cfi_offset 14, -4
 150:main.c        ****     UART_1_PutString("Decreasing speed\r\n");
 147              		.loc 1 150 0
 148 0002 0648     		ldr	r0, .L10
 149 0004 FFF7FEFF 		bl	UART_1_PutString
 150              	.LVL13:
 151:main.c        ****     if(speed>0) {
 151              		.loc 1 151 0
 152 0008 054B     		ldr	r3, .L10+4
 153 000a 1868     		ldr	r0, [r3]
 154 000c 0028     		cmp	r0, #0
 155 000e 04DD     		ble	.L7
 152:main.c        ****     speed=speed-1;
 156              		.loc 1 152 0
 157 0010 0138     		subs	r0, r0, #1
 158 0012 1860     		str	r0, [r3]
 153:main.c        ****     PWM_1_WriteCompare(speed);
 159              		.loc 1 153 0
 160 0014 C0B2     		uxtb	r0, r0
 161 0016 FFF7FEFF 		bl	PWM_1_WriteCompare
 162              	.LVL14:
 163              	.L7:
 164 001a 08BD     		pop	{r3, pc}
 165              	.L11:
 166              		.align	2
 167              	.L10:
 168 001c B0000000 		.word	.LC9
 169 0020 00000000 		.word	.LANCHOR0
 170              		.cfi_endproc
 171              	.LFE67:
 172              		.size	decreaseSpeed, .-decreaseSpeed
 173              		.section	.text.increaseSpeed,"ax",%progbits
ARM GAS  C:\Users\marti\AppData\Local\Temp\ccZc8QGb.s 			page 7


 174              		.align	2
 175              		.global	increaseSpeed
 176              		.thumb
 177              		.thumb_func
 178              		.type	increaseSpeed, %function
 179              	increaseSpeed:
 180              	.LFB68:
 154:main.c        ****     }
 155:main.c        ****     
 156:main.c        **** }
 157:main.c        **** 
 158:main.c        **** void increaseSpeed()
 159:main.c        **** {
 181              		.loc 1 159 0
 182              		.cfi_startproc
 183              		@ args = 0, pretend = 0, frame = 0
 184              		@ frame_needed = 0, uses_anonymous_args = 0
 185 0000 08B5     		push	{r3, lr}
 186              		.cfi_def_cfa_offset 8
 187              		.cfi_offset 3, -8
 188              		.cfi_offset 14, -4
 160:main.c        ****     UART_1_PutString("Increasing speed\r\n");
 189              		.loc 1 160 0
 190 0002 0648     		ldr	r0, .L15
 191 0004 FFF7FEFF 		bl	UART_1_PutString
 192              	.LVL15:
 161:main.c        ****     if(speed<10) {
 193              		.loc 1 161 0
 194 0008 054B     		ldr	r3, .L15+4
 195 000a 1868     		ldr	r0, [r3]
 196 000c 0928     		cmp	r0, #9
 197 000e 04DC     		bgt	.L12
 162:main.c        ****     speed=speed+1;
 198              		.loc 1 162 0
 199 0010 0130     		adds	r0, r0, #1
 200 0012 1860     		str	r0, [r3]
 163:main.c        ****     PWM_1_WriteCompare(speed);
 201              		.loc 1 163 0
 202 0014 C0B2     		uxtb	r0, r0
 203 0016 FFF7FEFF 		bl	PWM_1_WriteCompare
 204              	.LVL16:
 205              	.L12:
 206 001a 08BD     		pop	{r3, pc}
 207              	.L16:
 208              		.align	2
 209              	.L15:
 210 001c C4000000 		.word	.LC10
 211 0020 00000000 		.word	.LANCHOR0
 212              		.cfi_endproc
 213              	.LFE68:
 214              		.size	increaseSpeed, .-increaseSpeed
 215              		.section	.text.driveForwards,"ax",%progbits
 216              		.align	2
 217              		.global	driveForwards
 218              		.thumb
 219              		.thumb_func
 220              		.type	driveForwards, %function
ARM GAS  C:\Users\marti\AppData\Local\Temp\ccZc8QGb.s 			page 8


 221              	driveForwards:
 222              	.LFB69:
 164:main.c        ****     }
 165:main.c        **** 
 166:main.c        **** }
 167:main.c        **** 
 168:main.c        **** void driveForwards()
 169:main.c        **** {
 223              		.loc 1 169 0
 224              		.cfi_startproc
 225              		@ args = 0, pretend = 0, frame = 0
 226              		@ frame_needed = 0, uses_anonymous_args = 0
 227 0000 08B5     		push	{r3, lr}
 228              		.cfi_def_cfa_offset 8
 229              		.cfi_offset 3, -8
 230              		.cfi_offset 14, -4
 170:main.c        ****     UART_1_PutString("Set direction: forwards\r\n");
 231              		.loc 1 170 0
 232 0002 0648     		ldr	r0, .L19
 233 0004 FFF7FEFF 		bl	UART_1_PutString
 234              	.LVL17:
 171:main.c        ****     Pin_EN_Write(1);
 235              		.loc 1 171 0
 236 0008 0120     		movs	r0, #1
 237 000a FFF7FEFF 		bl	Pin_EN_Write
 238              	.LVL18:
 172:main.c        ****     Pin_LN1_Write(1);
 239              		.loc 1 172 0
 240 000e 0120     		movs	r0, #1
 241 0010 FFF7FEFF 		bl	Pin_LN1_Write
 242              	.LVL19:
 173:main.c        ****     Pin_LN2_Write(0);
 243              		.loc 1 173 0
 244 0014 0020     		movs	r0, #0
 245 0016 FFF7FEFF 		bl	Pin_LN2_Write
 246              	.LVL20:
 247 001a 08BD     		pop	{r3, pc}
 248              	.L20:
 249              		.align	2
 250              	.L19:
 251 001c D8000000 		.word	.LC11
 252              		.cfi_endproc
 253              	.LFE69:
 254              		.size	driveForwards, .-driveForwards
 255              		.section	.text.driveBackwards,"ax",%progbits
 256              		.align	2
 257              		.global	driveBackwards
 258              		.thumb
 259              		.thumb_func
 260              		.type	driveBackwards, %function
 261              	driveBackwards:
 262              	.LFB70:
 174:main.c        ****     
 175:main.c        **** }
 176:main.c        **** 
 177:main.c        **** void driveBackwards()
 178:main.c        **** {
ARM GAS  C:\Users\marti\AppData\Local\Temp\ccZc8QGb.s 			page 9


 263              		.loc 1 178 0
 264              		.cfi_startproc
 265              		@ args = 0, pretend = 0, frame = 0
 266              		@ frame_needed = 0, uses_anonymous_args = 0
 267 0000 08B5     		push	{r3, lr}
 268              		.cfi_def_cfa_offset 8
 269              		.cfi_offset 3, -8
 270              		.cfi_offset 14, -4
 179:main.c        ****     UART_1_PutString("Set direction: backwards\r\n");
 271              		.loc 1 179 0
 272 0002 0648     		ldr	r0, .L23
 273 0004 FFF7FEFF 		bl	UART_1_PutString
 274              	.LVL21:
 180:main.c        ****     Pin_EN_Write(1);
 275              		.loc 1 180 0
 276 0008 0120     		movs	r0, #1
 277 000a FFF7FEFF 		bl	Pin_EN_Write
 278              	.LVL22:
 181:main.c        ****     Pin_LN1_Write(0);
 279              		.loc 1 181 0
 280 000e 0020     		movs	r0, #0
 281 0010 FFF7FEFF 		bl	Pin_LN1_Write
 282              	.LVL23:
 182:main.c        ****     Pin_LN2_Write(1);
 283              		.loc 1 182 0
 284 0014 0120     		movs	r0, #1
 285 0016 FFF7FEFF 		bl	Pin_LN2_Write
 286              	.LVL24:
 287 001a 08BD     		pop	{r3, pc}
 288              	.L24:
 289              		.align	2
 290              	.L23:
 291 001c F4000000 		.word	.LC12
 292              		.cfi_endproc
 293              	.LFE70:
 294              		.size	driveBackwards, .-driveBackwards
 295              		.section	.text.stop,"ax",%progbits
 296              		.align	2
 297              		.global	stop
 298              		.thumb
 299              		.thumb_func
 300              		.type	stop, %function
 301              	stop:
 302              	.LFB71:
 183:main.c        **** }
 184:main.c        **** 
 185:main.c        **** void stop()
 186:main.c        **** {
 303              		.loc 1 186 0
 304              		.cfi_startproc
 305              		@ args = 0, pretend = 0, frame = 0
 306              		@ frame_needed = 0, uses_anonymous_args = 0
 307 0000 08B5     		push	{r3, lr}
 308              		.cfi_def_cfa_offset 8
 309              		.cfi_offset 3, -8
 310              		.cfi_offset 14, -4
 187:main.c        ****     UART_1_PutString("Stop\r\n");
ARM GAS  C:\Users\marti\AppData\Local\Temp\ccZc8QGb.s 			page 10


 311              		.loc 1 187 0
 312 0002 0648     		ldr	r0, .L27
 313 0004 FFF7FEFF 		bl	UART_1_PutString
 314              	.LVL25:
 188:main.c        ****     Pin_EN_Write(1);
 315              		.loc 1 188 0
 316 0008 0120     		movs	r0, #1
 317 000a FFF7FEFF 		bl	Pin_EN_Write
 318              	.LVL26:
 189:main.c        ****     Pin_LN1_Write(1);
 319              		.loc 1 189 0
 320 000e 0120     		movs	r0, #1
 321 0010 FFF7FEFF 		bl	Pin_LN1_Write
 322              	.LVL27:
 190:main.c        ****     Pin_LN2_Write(1);
 323              		.loc 1 190 0
 324 0014 0120     		movs	r0, #1
 325 0016 FFF7FEFF 		bl	Pin_LN2_Write
 326              	.LVL28:
 327 001a 08BD     		pop	{r3, pc}
 328              	.L28:
 329              		.align	2
 330              	.L27:
 331 001c 10010000 		.word	.LC13
 332              		.cfi_endproc
 333              	.LFE71:
 334              		.size	stop, .-stop
 335              		.section	.text.handleByteReceived,"ax",%progbits
 336              		.align	2
 337              		.global	handleByteReceived
 338              		.thumb
 339              		.thumb_func
 340              		.type	handleByteReceived, %function
 341              	handleByteReceived:
 342              	.LFB66:
  90:main.c        ****     switch(byteReceived)
 343              		.loc 1 90 0
 344              		.cfi_startproc
 345              		@ args = 0, pretend = 0, frame = 0
 346              		@ frame_needed = 0, uses_anonymous_args = 0
 347              	.LVL29:
 348 0000 08B5     		push	{r3, lr}
 349              		.cfi_def_cfa_offset 8
 350              		.cfi_offset 3, -8
 351              		.cfi_offset 14, -4
  91:main.c        ****     {
 352              		.loc 1 91 0
 353 0002 3228     		cmp	r0, #50
 354 0004 13D0     		beq	.L31
 355 0006 04D8     		bhi	.L32
 356 0008 3028     		cmp	r0, #48
 357 000a 13D0     		beq	.L33
 358 000c 3128     		cmp	r0, #49
 359 000e 0BD0     		beq	.L34
 360 0010 08BD     		pop	{r3, pc}
 361              	.L32:
 362 0012 7128     		cmp	r0, #113
ARM GAS  C:\Users\marti\AppData\Local\Temp\ccZc8QGb.s 			page 11


 363 0014 02D0     		beq	.L35
 364 0016 7728     		cmp	r0, #119
 365 0018 03D0     		beq	.L36
 366 001a 08BD     		pop	{r3, pc}
 367              	.L35:
  95:main.c        ****         }
 368              		.loc 1 95 0
 369 001c FFF7FEFF 		bl	decreaseSpeed
 370              	.LVL30:
  97:main.c        ****         case 'w' :
 371              		.loc 1 97 0
 372 0020 08BD     		pop	{r3, pc}
 373              	.LVL31:
 374              	.L36:
 100:main.c        ****         }
 375              		.loc 1 100 0
 376 0022 FFF7FEFF 		bl	increaseSpeed
 377              	.LVL32:
 102:main.c        ****         case '1' :
 378              		.loc 1 102 0
 379 0026 08BD     		pop	{r3, pc}
 380              	.LVL33:
 381              	.L34:
 105:main.c        ****         }
 382              		.loc 1 105 0
 383 0028 FFF7FEFF 		bl	driveForwards
 384              	.LVL34:
 107:main.c        ****         case '2' :
 385              		.loc 1 107 0
 386 002c 08BD     		pop	{r3, pc}
 387              	.LVL35:
 388              	.L31:
 110:main.c        ****         }
 389              		.loc 1 110 0
 390 002e FFF7FEFF 		bl	driveBackwards
 391              	.LVL36:
 112:main.c        ****         case '0' :
 392              		.loc 1 112 0
 393 0032 08BD     		pop	{r3, pc}
 394              	.LVL37:
 395              	.L33:
 115:main.c        ****             
 396              		.loc 1 115 0
 397 0034 FFF7FEFF 		bl	stop
 398              	.LVL38:
 399 0038 08BD     		pop	{r3, pc}
 400              		.cfi_endproc
 401              	.LFE66:
 402              		.size	handleByteReceived, .-handleByteReceived
 403 003a 00BF     		.section	.text.ISR_UART_rx_handler,"ax",%progbits
 404              		.align	2
 405              		.global	ISR_UART_rx_handler
 406              		.thumb
 407              		.thumb_func
 408              		.type	ISR_UART_rx_handler, %function
 409              	ISR_UART_rx_handler:
 410              	.LFB65:
ARM GAS  C:\Users\marti\AppData\Local\Temp\ccZc8QGb.s 			page 12


  76:main.c        ****     uint8_t bytesToRead = UART_1_GetRxBufferSize();
 411              		.loc 1 76 0
 412              		.cfi_startproc
 413              		@ args = 0, pretend = 0, frame = 0
 414              		@ frame_needed = 0, uses_anonymous_args = 0
 415 0000 38B5     		push	{r3, r4, r5, lr}
 416              		.cfi_def_cfa_offset 16
 417              		.cfi_offset 3, -16
 418              		.cfi_offset 4, -12
 419              		.cfi_offset 5, -8
 420              		.cfi_offset 14, -4
  77:main.c        ****     while (bytesToRead > 0)
 421              		.loc 1 77 0
 422 0002 FFF7FEFF 		bl	UART_1_GetRxBufferSize
 423              	.LVL39:
 424 0006 0446     		mov	r4, r0
 425              	.LVL40:
  78:main.c        ****     {
 426              		.loc 1 78 0
 427 0008 09E0     		b	.L39
 428              	.L40:
 429              	.LBB2:
  80:main.c        ****         UART_1_WriteTxData(byteReceived); // echo back
 430              		.loc 1 80 0
 431 000a FFF7FEFF 		bl	UART_1_ReadRxData
 432              	.LVL41:
 433 000e 0546     		mov	r5, r0
 434              	.LVL42:
  81:main.c        ****         
 435              		.loc 1 81 0
 436 0010 FFF7FEFF 		bl	UART_1_WriteTxData
 437              	.LVL43:
  83:main.c        ****         
 438              		.loc 1 83 0
 439 0014 2846     		mov	r0, r5
 440 0016 FFF7FEFF 		bl	handleByteReceived
 441              	.LVL44:
  85:main.c        ****     }
 442              		.loc 1 85 0
 443 001a 013C     		subs	r4, r4, #1
 444              	.LVL45:
 445 001c E4B2     		uxtb	r4, r4
 446              	.LVL46:
 447              	.L39:
 448              	.LBE2:
  78:main.c        ****     {
 449              		.loc 1 78 0
 450 001e 002C     		cmp	r4, #0
 451 0020 F3D1     		bne	.L40
  87:main.c        **** 
 452              		.loc 1 87 0
 453 0022 38BD     		pop	{r3, r4, r5, pc}
 454              		.cfi_endproc
 455              	.LFE65:
 456              		.size	ISR_UART_rx_handler, .-ISR_UART_rx_handler
 457              		.section	.text.wave,"ax",%progbits
 458              		.align	2
ARM GAS  C:\Users\marti\AppData\Local\Temp\ccZc8QGb.s 			page 13


 459              		.global	wave
 460              		.thumb
 461              		.thumb_func
 462              		.type	wave, %function
 463              	wave:
 464              	.LFB72:
 191:main.c        **** }
 192:main.c        **** 
 193:main.c        **** void wave(void) {
 465              		.loc 1 193 0
 466              		.cfi_startproc
 467              		@ args = 0, pretend = 0, frame = 0
 468              		@ frame_needed = 0, uses_anonymous_args = 0
 469              		@ link register save eliminated.
 470 0000 7047     		bx	lr
 471              		.cfi_endproc
 472              	.LFE72:
 473              		.size	wave, .-wave
 474 0002 00BF     		.section	.text.fullstep,"ax",%progbits
 475              		.align	2
 476              		.global	fullstep
 477              		.thumb
 478              		.thumb_func
 479              		.type	fullstep, %function
 480              	fullstep:
 481              	.LFB73:
 194:main.c        ****     
 195:main.c        **** }
 196:main.c        **** void fullstep(void) {
 482              		.loc 1 196 0
 483              		.cfi_startproc
 484              		@ args = 0, pretend = 0, frame = 0
 485              		@ frame_needed = 0, uses_anonymous_args = 0
 486              		@ link register save eliminated.
 487 0000 7047     		bx	lr
 488              		.cfi_endproc
 489              	.LFE73:
 490              		.size	fullstep, .-fullstep
 491 0002 00BF     		.section	.text.halfstep,"ax",%progbits
 492              		.align	2
 493              		.global	halfstep
 494              		.thumb
 495              		.thumb_func
 496              		.type	halfstep, %function
 497              	halfstep:
 498              	.LFB74:
 197:main.c        ****     
 198:main.c        **** }
 199:main.c        **** void halfstep(void) {
 499              		.loc 1 199 0
 500              		.cfi_startproc
 501              		@ args = 0, pretend = 0, frame = 0
 502              		@ frame_needed = 0, uses_anonymous_args = 0
 503              		@ link register save eliminated.
 504 0000 7047     		bx	lr
 505              		.cfi_endproc
 506              	.LFE74:
ARM GAS  C:\Users\marti\AppData\Local\Temp\ccZc8QGb.s 			page 14


 507              		.size	halfstep, .-halfstep
 508 0002 00BF     		.section	.rodata.str1.4,"aMS",%progbits,1
 509              		.align	2
 510              	.LC0:
 511 0000 44432D4D 		.ascii	"DC-Motor-PWM application started\015\012\000"
 511      6F746F72 
 511      2D50574D 
 511      20617070 
 511      6C696361 
 512 0023 00       		.space	1
 513              	.LC1:
 514 0024 303A2053 		.ascii	"0: Stop\015\012\000"
 514      746F700D 
 514      0A00
 515 002e 0000     		.space	2
 516              	.LC2:
 517 0030 313A2044 		.ascii	"1: Drive forwards\015\012\000"
 517      72697665 
 517      20666F72 
 517      77617264 
 517      730D0A00 
 518              	.LC3:
 519 0044 323A2044 		.ascii	"2: Drive backwards\015\012\000"
 519      72697665 
 519      20626163 
 519      6B776172 
 519      64730D0A 
 520 0059 000000   		.space	3
 521              	.LC4:
 522 005c 713A2044 		.ascii	"q: Decrease speed\015\012\000"
 522      65637265 
 522      61736520 
 522      73706565 
 522      640D0A00 
 523              	.LC5:
 524 0070 773A2049 		.ascii	"w: Increase speed\015\012\000"
 524      6E637265 
 524      61736520 
 524      73706565 
 524      640D0A00 
 525              	.LC6:
 526 0084 363A2057 		.ascii	"6: Wave\015\012\000"
 526      6176650D 
 526      0A00
 527 008e 0000     		.space	2
 528              	.LC7:
 529 0090 373A2066 		.ascii	"7: fullstep\015\012\000"
 529      756C6C73 
 529      7465700D 
 529      0A00
 530 009e 0000     		.space	2
 531              	.LC8:
 532 00a0 383A2068 		.ascii	"8: halfstep\015\012\000"
 532      616C6673 
 532      7465700D 
 532      0A00
 533 00ae 0000     		.space	2
ARM GAS  C:\Users\marti\AppData\Local\Temp\ccZc8QGb.s 			page 15


 534              	.LC9:
 535 00b0 44656372 		.ascii	"Decreasing speed\015\012\000"
 535      65617369 
 535      6E672073 
 535      70656564 
 535      0D0A00
 536 00c3 00       		.space	1
 537              	.LC10:
 538 00c4 496E6372 		.ascii	"Increasing speed\015\012\000"
 538      65617369 
 538      6E672073 
 538      70656564 
 538      0D0A00
 539 00d7 00       		.space	1
 540              	.LC11:
 541 00d8 53657420 		.ascii	"Set direction: forwards\015\012\000"
 541      64697265 
 541      6374696F 
 541      6E3A2066 
 541      6F727761 
 542 00f2 0000     		.space	2
 543              	.LC12:
 544 00f4 53657420 		.ascii	"Set direction: backwards\015\012\000"
 544      64697265 
 544      6374696F 
 544      6E3A2062 
 544      61636B77 
 545 010f 00       		.space	1
 546              	.LC13:
 547 0110 53746F70 		.ascii	"Stop\015\012\000"
 547      0D0A00
 548              		.bss
 549              		.align	2
 550              		.set	.LANCHOR0,. + 0
 551              		.type	speed, %object
 552              		.size	speed, 4
 553              	speed:
 554 0000 00000000 		.space	4
 555              		.text
 556              	.Letext0:
 557              		.file 2 "c:\\program files (x86)\\cypress\\psoc creator\\4.2\\psoc creator\\import\\gnu\\arm\\5.4.
 558              		.file 3 "c:\\program files (x86)\\cypress\\psoc creator\\4.2\\psoc creator\\import\\gnu\\arm\\5.4.
 559              		.file 4 "Generated_Source\\PSoC5/isr_uart_rx.h"
 560              		.file 5 "Generated_Source\\PSoC5/isr_timer.h"
 561              		.file 6 "Generated_Source\\PSoC5/UART_1.h"
 562              		.file 7 "Generated_Source\\PSoC5/PWM_1.h"
 563              		.file 8 "Generated_Source\\PSoC5/Pin_EN.h"
 564              		.file 9 "Generated_Source\\PSoC5/Pin_LN1.h"
 565              		.file 10 "Generated_Source\\PSoC5/Pin_LN2.h"
 566              		.file 11 "Generated_Source\\PSoC5/core_cm3.h"