ARM GAS  C:\Users\marti\AppData\Local\Temp\cczue4IB.s 			page 1


   1              		.syntax unified
   2              		.cpu cortex-m3
   3              		.fpu softvfp
   4              		.eabi_attribute 20, 1
   5              		.eabi_attribute 21, 1
   6              		.eabi_attribute 23, 3
   7              		.eabi_attribute 24, 1
   8              		.eabi_attribute 25, 1
   9              		.eabi_attribute 26, 1
  10              		.eabi_attribute 30, 1
  11              		.eabi_attribute 34, 1
  12              		.eabi_attribute 18, 4
  13              		.thumb
  14              		.syntax unified
  15              		.file	"main.c"
  16              		.text
  17              	.Ltext0:
  18              		.cfi_sections	.debug_frame
  19              		.section	.text.ISR_UART_rx_handler,"ax",%progbits
  20              		.align	2
  21              		.global	ISR_UART_rx_handler
  22              		.thumb
  23              		.thumb_func
  24              		.type	ISR_UART_rx_handler, %function
  25              	ISR_UART_rx_handler:
  26              	.LFB65:
  27              		.file 1 "main.c"
   1:main.c        **** /* ========================================
   2:main.c        ****  *
   3:main.c        ****  * Copyright MarBech Code, Marcus Bech, 2019
   4:main.c        ****  * All Rights Reserved
   5:main.c        ****  * UNPUBLISHED, LICENSED SOFTWARE.
   6:main.c        ****  *
   7:main.c        ****  * CONFIDENTIAL AND PROPRIETARY INFORMATION
   8:main.c        ****  * WHICH IS THE PROPERTY OF your company.
   9:main.c        ****  *
  10:main.c        ****  * ========================================
  11:main.c        **** */
  12:main.c        **** #include "project.h"
  13:main.c        **** #include <stdio.h>
  14:main.c        **** #include <math.h>
  15:main.c        **** #include "counter.h"
  16:main.c        **** 
  17:main.c        **** CY_ISR_PROTO(ISR_UART_rx_handler);
  18:main.c        **** 
  19:main.c        **** int main(void)
  20:main.c        **** {
  21:main.c        ****     
  22:main.c        ****     static int count = 0; // Count er en fast værdi 0.
  23:main.c        ****     
  24:main.c        ****     /* Place your initialization/startup code here (e.g. MyInst_Start()) */
  25:main.c        ****     isr_uart_rx_StartEx(ISR_UART_rx_handler); //UART interrupt initialiseres
  26:main.c        ****     UART_1_Start(); //UART initialiseres
  27:main.c        ****     PWM_1_Start(); //PWM initialiseres
  28:main.c        ****     
  29:main.c        ****     /* Place your initialization/startup code here (e.g. MyInst_Start()) */
  30:main.c        ****     I2C_Start();
ARM GAS  C:\Users\marti\AppData\Local\Temp\cczue4IB.s 			page 2


  31:main.c        ****     isr_uart_rx_StartEx(ISR_UART_rx_handler); //UART interrupt initialiseres
  32:main.c        ****     uint8 slaveAddress, status, b1, b2 = 0;
  33:main.c        ****     float b3 = 0;
  34:main.c        ****     char8 b4;
  35:main.c        ****     
  36:main.c        ****     for(;;)
  37:main.c        ****     {
  38:main.c        ****         //status = MasterSendStart(adress, read);
  39:main.c        ****         counter(&slaveAddress, &count); //initalisere counter funktionen hvor den skifter imellem d
  40:main.c        ****         status = I2C_MasterSendStart(slaveAddress, 1);
  41:main.c        ****         
  42:main.c        ****         if (status == I2C_MSTR_NO_ERROR) // hvis status når adressen, går den ind i dette loop.
  43:main.c        ****         {
  44:main.c        ****             b1 = I2C_MasterReadByte(I2C_ACK_DATA); //starter clock, vi vil gerne modtage data.
  45:main.c        ****             b2 = I2C_MasterReadByte(I2C_NAK_DATA); // stopper clock, vi vil ikke modtage mere data.
  46:main.c        ****             
  47:main.c        ****             //b6 = binTwosComplementToSignedDecimal((char8)&b3, 9)/2;
  48:main.c        ****             if (b2 == 128) //hvis den er 7bit lang, så skal der tillægges en halv grad.
  49:main.c        ****             b3 = 0.5;
  50:main.c        ****             else // ellers er det heltals grader.
  51:main.c        ****             b3 = 0.0;
  52:main.c        ****             b3 += b1;
  53:main.c        ****             sprintf(&b4, "%.1f", b3); //formatere bitstrengen til b4, som senere skrives ud.
  54:main.c        ****         }
  55:main.c        ****         
  56:main.c        ****         I2C_MasterSendStop(); // Når der kaldes masterstart, skal masterstop også kaldes.
  57:main.c        ****         I2C_MasterClearReadBuf(); // Sletter data i buffers
  58:main.c        ****         I2C_MasterClearWriteBuf();
  59:main.c        ****         UART_1_PutString("Temperaturen er: ");
  60:main.c        ****         UART_1_PutString(&b4);
  61:main.c        ****         UART_1_PutString(" grader celcius \r\n");
  62:main.c        ****         
  63:main.c        ****         CyDelay(1000);
  64:main.c        ****     }
  65:main.c        **** }
  66:main.c        **** 
  67:main.c        **** CY_ISR(ISR_UART_rx_handler)
  68:main.c        **** {
  28              		.loc 1 68 0
  29              		.cfi_startproc
  30              		@ args = 0, pretend = 0, frame = 0
  31              		@ frame_needed = 0, uses_anonymous_args = 0
  32 0000 10B5     		push	{r4, lr}
  33              		.cfi_def_cfa_offset 8
  34              		.cfi_offset 4, -8
  35              		.cfi_offset 14, -4
  69:main.c        ****     uint8_t bytesToRead = UART_1_GetRxBufferSize();
  36              		.loc 1 69 0
  37 0002 FFF7FEFF 		bl	UART_1_GetRxBufferSize
  38              	.LVL0:
  39 0006 0446     		mov	r4, r0
  40              	.LVL1:
  70:main.c        ****     while (bytesToRead > 0)
  41              		.loc 1 70 0
  42 0008 05E0     		b	.L2
  43              	.L3:
  44              	.LBB2:
ARM GAS  C:\Users\marti\AppData\Local\Temp\cczue4IB.s 			page 3


  71:main.c        ****     {
  72:main.c        ****         uint8_t byteReceived = UART_1_ReadRxData();
  45              		.loc 1 72 0
  46 000a FFF7FEFF 		bl	UART_1_ReadRxData
  47              	.LVL2:
  73:main.c        ****         UART_1_WriteTxData(byteReceived); // echo back
  48              		.loc 1 73 0
  49 000e FFF7FEFF 		bl	UART_1_WriteTxData
  50              	.LVL3:
  74:main.c        ****         
  75:main.c        ****         bytesToRead--;
  51              		.loc 1 75 0
  52 0012 013C     		subs	r4, r4, #1
  53              	.LVL4:
  54 0014 E4B2     		uxtb	r4, r4
  55              	.LVL5:
  56              	.L2:
  57              	.LBE2:
  70:main.c        ****     {
  58              		.loc 1 70 0
  59 0016 002C     		cmp	r4, #0
  60 0018 F7D1     		bne	.L3
  76:main.c        ****     }
  77:main.c        **** }
  61              		.loc 1 77 0
  62 001a 10BD     		pop	{r4, pc}
  63              		.cfi_endproc
  64              	.LFE65:
  65              		.size	ISR_UART_rx_handler, .-ISR_UART_rx_handler
  66              		.global	__aeabi_i2f
  67              		.global	__aeabi_fadd
  68              		.global	__aeabi_f2d
  69              		.section	.text.main,"ax",%progbits
  70              		.align	2
  71              		.global	main
  72              		.thumb
  73              		.thumb_func
  74              		.type	main, %function
  75              	main:
  76              	.LFB64:
  20:main.c        ****     
  77              		.loc 1 20 0
  78              		.cfi_startproc
  79              		@ args = 0, pretend = 0, frame = 8
  80              		@ frame_needed = 0, uses_anonymous_args = 0
  81 0000 30B5     		push	{r4, r5, lr}
  82              		.cfi_def_cfa_offset 12
  83              		.cfi_offset 4, -12
  84              		.cfi_offset 5, -8
  85              		.cfi_offset 14, -4
  86 0002 83B0     		sub	sp, sp, #12
  87              		.cfi_def_cfa_offset 24
  25:main.c        ****     UART_1_Start(); //UART initialiseres
  88              		.loc 1 25 0
  89 0004 244C     		ldr	r4, .L11
  90 0006 2046     		mov	r0, r4
  91 0008 FFF7FEFF 		bl	isr_uart_rx_StartEx
ARM GAS  C:\Users\marti\AppData\Local\Temp\cczue4IB.s 			page 4


  92              	.LVL6:
  26:main.c        ****     PWM_1_Start(); //PWM initialiseres
  93              		.loc 1 26 0
  94 000c FFF7FEFF 		bl	UART_1_Start
  95              	.LVL7:
  27:main.c        ****     
  96              		.loc 1 27 0
  97 0010 FFF7FEFF 		bl	PWM_1_Start
  98              	.LVL8:
  30:main.c        ****     isr_uart_rx_StartEx(ISR_UART_rx_handler); //UART interrupt initialiseres
  99              		.loc 1 30 0
 100 0014 FFF7FEFF 		bl	I2C_Start
 101              	.LVL9:
  31:main.c        ****     uint8 slaveAddress, status, b1, b2 = 0;
 102              		.loc 1 31 0
 103 0018 2046     		mov	r0, r4
 104 001a FFF7FEFF 		bl	isr_uart_rx_StartEx
 105              	.LVL10:
 106              	.L8:
  39:main.c        ****         status = I2C_MasterSendStart(slaveAddress, 1);
 107              		.loc 1 39 0
 108 001e 1F49     		ldr	r1, .L11+4
 109 0020 0DF10700 		add	r0, sp, #7
 110 0024 FFF7FEFF 		bl	counter
 111              	.LVL11:
  40:main.c        ****         
 112              		.loc 1 40 0
 113 0028 0121     		movs	r1, #1
 114 002a 9DF80700 		ldrb	r0, [sp, #7]	@ zero_extendqisi2
 115 002e FFF7FEFF 		bl	I2C_MasterSendStart
 116              	.LVL12:
  42:main.c        ****         {
 117              		.loc 1 42 0
 118 0032 D8B9     		cbnz	r0, .L6
  44:main.c        ****             b2 = I2C_MasterReadByte(I2C_NAK_DATA); // stopper clock, vi vil ikke modtage mere data.
 119              		.loc 1 44 0
 120 0034 0120     		movs	r0, #1
 121              	.LVL13:
 122 0036 FFF7FEFF 		bl	I2C_MasterReadByte
 123              	.LVL14:
 124 003a 0446     		mov	r4, r0
 125              	.LVL15:
  45:main.c        ****             
 126              		.loc 1 45 0
 127 003c 0020     		movs	r0, #0
 128 003e FFF7FEFF 		bl	I2C_MasterReadByte
 129              	.LVL16:
  48:main.c        ****             b3 = 0.5;
 130              		.loc 1 48 0
 131 0042 8028     		cmp	r0, #128
 132 0044 02D1     		bne	.L9
  49:main.c        ****             else // ellers er det heltals grader.
 133              		.loc 1 49 0
 134 0046 4FF07C55 		mov	r5, #1056964608
 135 004a 00E0     		b	.L7
 136              	.L9:
  51:main.c        ****             b3 += b1;
ARM GAS  C:\Users\marti\AppData\Local\Temp\cczue4IB.s 			page 5


 137              		.loc 1 51 0
 138 004c 0025     		movs	r5, #0
 139              	.L7:
 140              	.LVL17:
  52:main.c        ****             sprintf(&b4, "%.1f", b3); //formatere bitstrengen til b4, som senere skrives ud.
 141              		.loc 1 52 0
 142 004e 2046     		mov	r0, r4
 143              	.LVL18:
 144 0050 FFF7FEFF 		bl	__aeabi_i2f
 145              	.LVL19:
 146 0054 2946     		mov	r1, r5
 147 0056 FFF7FEFF 		bl	__aeabi_fadd
 148              	.LVL20:
  53:main.c        ****         }
 149              		.loc 1 53 0
 150 005a FFF7FEFF 		bl	__aeabi_f2d
 151              	.LVL21:
 152 005e 0246     		mov	r2, r0
 153 0060 0B46     		mov	r3, r1
 154 0062 0F49     		ldr	r1, .L11+8
 155 0064 0DF10600 		add	r0, sp, #6
 156 0068 FFF7FEFF 		bl	sprintf
 157              	.LVL22:
 158              	.L6:
  56:main.c        ****         I2C_MasterClearReadBuf(); // Sletter data i buffers
 159              		.loc 1 56 0
 160 006c FFF7FEFF 		bl	I2C_MasterSendStop
 161              	.LVL23:
  57:main.c        ****         I2C_MasterClearWriteBuf();
 162              		.loc 1 57 0
 163 0070 FFF7FEFF 		bl	I2C_MasterClearReadBuf
 164              	.LVL24:
  58:main.c        ****         UART_1_PutString("Temperaturen er: ");
 165              		.loc 1 58 0
 166 0074 FFF7FEFF 		bl	I2C_MasterClearWriteBuf
 167              	.LVL25:
  59:main.c        ****         UART_1_PutString(&b4);
 168              		.loc 1 59 0
 169 0078 0A48     		ldr	r0, .L11+12
 170 007a FFF7FEFF 		bl	UART_1_PutString
 171              	.LVL26:
  60:main.c        ****         UART_1_PutString(" grader celcius \r\n");
 172              		.loc 1 60 0
 173 007e 0DF10600 		add	r0, sp, #6
 174 0082 FFF7FEFF 		bl	UART_1_PutString
 175              	.LVL27:
  61:main.c        ****         
 176              		.loc 1 61 0
 177 0086 0848     		ldr	r0, .L11+16
 178 0088 FFF7FEFF 		bl	UART_1_PutString
 179              	.LVL28:
  63:main.c        ****     }
 180              		.loc 1 63 0
 181 008c 4FF47A70 		mov	r0, #1000
 182 0090 FFF7FEFF 		bl	CyDelay
 183              	.LVL29:
  64:main.c        **** }
ARM GAS  C:\Users\marti\AppData\Local\Temp\cczue4IB.s 			page 6


 184              		.loc 1 64 0
 185 0094 C3E7     		b	.L8
 186              	.L12:
 187 0096 00BF     		.align	2
 188              	.L11:
 189 0098 00000000 		.word	ISR_UART_rx_handler
 190 009c 00000000 		.word	.LANCHOR0
 191 00a0 00000000 		.word	.LC0
 192 00a4 08000000 		.word	.LC1
 193 00a8 1C000000 		.word	.LC2
 194              		.cfi_endproc
 195              	.LFE64:
 196              		.size	main, .-main
 197              		.section	.rodata.str1.4,"aMS",%progbits,1
 198              		.align	2
 199              	.LC0:
 200 0000 252E3166 		.ascii	"%.1f\000"
 200      00
 201 0005 000000   		.space	3
 202              	.LC1:
 203 0008 54656D70 		.ascii	"Temperaturen er: \000"
 203      65726174 
 203      7572656E 
 203      2065723A 
 203      2000
 204 001a 0000     		.space	2
 205              	.LC2:
 206 001c 20677261 		.ascii	" grader celcius \015\012\000"
 206      64657220 
 206      63656C63 
 206      69757320 
 206      0D0A00
 207              		.bss
 208              		.align	2
 209              		.set	.LANCHOR0,. + 0
 210              		.type	count.7088, %object
 211              		.size	count.7088, 4
 212              	count.7088:
 213 0000 00000000 		.space	4
 214              		.text
 215              	.Letext0:
 216              		.file 2 "c:\\program files (x86)\\cypress\\psoc creator\\4.2\\psoc creator\\import\\gnu\\arm\\5.4.
 217              		.file 3 "c:\\program files (x86)\\cypress\\psoc creator\\4.2\\psoc creator\\import\\gnu\\arm\\5.4.
 218              		.file 4 "Generated_Source\\PSoC5/cytypes.h"
 219              		.file 5 "Generated_Source\\PSoC5/UART_1.h"
 220              		.file 6 "Generated_Source\\PSoC5/isr_uart_rx.h"
 221              		.file 7 "Generated_Source\\PSoC5/PWM_1.h"
 222              		.file 8 "Generated_Source\\PSoC5/I2C.h"
 223              		.file 9 "counter.h"
 224              		.file 10 "c:\\program files (x86)\\cypress\\psoc creator\\4.2\\psoc creator\\import\\gnu\\arm\\5.4
 225              		.file 11 "Generated_Source\\PSoC5/CyLib.h"
 226              		.file 12 "Generated_Source\\PSoC5/core_cm3.h"