ARM GAS  C:\Users\marti\AppData\Local\Temp\ccIpx5TC.s 			page 1


   1              		.syntax unified
   2              		.cpu cortex-m3
   3              		.fpu softvfp
   4              		.eabi_attribute 20, 1
   5              		.eabi_attribute 21, 1
   6              		.eabi_attribute 23, 3
   7              		.eabi_attribute 24, 1
   8              		.eabi_attribute 25, 1
   9              		.eabi_attribute 26, 1
  10              		.eabi_attribute 30, 1
  11              		.eabi_attribute 34, 1
  12              		.eabi_attribute 18, 4
  13              		.thumb
  14              		.syntax unified
  15              		.file	"main.c"
  16              		.text
  17              	.Ltext0:
  18              		.cfi_sections	.debug_frame
  19              		.section	.text.main,"ax",%progbits
  20              		.align	2
  21              		.global	main
  22              		.thumb
  23              		.thumb_func
  24              		.type	main, %function
  25              	main:
  26              	.LFB63:
  27              		.file 1 "main.c"
   1:main.c        **** /* ========================================
   2:main.c        ****  *
   3:main.c        ****  * Copyright YOUR COMPANY, THE YEAR
   4:main.c        ****  * All Rights Reserved
   5:main.c        ****  * UNPUBLISHED, LICENSED SOFTWARE.
   6:main.c        ****  *
   7:main.c        ****  * CONFIDENTIAL AND PROPRIETARY INFORMATION
   8:main.c        ****  * WHICH IS THE PROPERTY OF your company.
   9:main.c        ****  *
  10:main.c        ****  * ========================================
  11:main.c        **** */
  12:main.c        **** #include "project.h"
  13:main.c        **** 
  14:main.c        **** CY_ISR_PROTO(ISR_UART_rx_handler);
  15:main.c        **** void handleByteReceived(uint8_t byteReceived);
  16:main.c        **** 
  17:main.c        **** void Turnon(void); //tænd LED
  18:main.c        **** void Turnoff(void); // Sluk LED
  19:main.c        **** 
  20:main.c        **** uint8 char2 = '0'; //karakter der skal sendes
  21:main.c        **** int main(void)
  22:main.c        **** {
  28              		.loc 1 22 0
  29              		.cfi_startproc
  30              		@ args = 0, pretend = 0, frame = 0
  31              		@ frame_needed = 0, uses_anonymous_args = 0
  32 0000 08B5     		push	{r3, lr}
  33              		.cfi_def_cfa_offset 8
  34              		.cfi_offset 3, -8
  35              		.cfi_offset 14, -4
ARM GAS  C:\Users\marti\AppData\Local\Temp\ccIpx5TC.s 			page 2


  23:main.c        ****     CyGlobalIntEnable; /* Enable global interrupts. */
  36              		.loc 1 23 0
  37              		.syntax unified
  38              	@ 23 "main.c" 1
  39 0002 62B6     		CPSIE   i
  40              	@ 0 "" 2
  24:main.c        **** 
  25:main.c        ****     /* Place your initialization/startup code here (e.g. MyInst_Start()) */
  26:main.c        ****     isr_uart_rx_StartEx(ISR_UART_rx_handler); //UART interrupt initialiseres
  41              		.loc 1 26 0
  42              		.thumb
  43              		.syntax unified
  44 0004 0B48     		ldr	r0, .L5
  45 0006 FFF7FEFF 		bl	isr_uart_rx_StartEx
  46              	.LVL0:
  27:main.c        ****     UART_1_Start(); //UART initialiseres
  47              		.loc 1 27 0
  48 000a FFF7FEFF 		bl	UART_1_Start
  49              	.LVL1:
  28:main.c        ****     
  29:main.c        ****     
  30:main.c        ****     
  31:main.c        ****     
  32:main.c        ****   
  33:main.c        **** 
  34:main.c        ****     //static uint8 mTxBuffer[8];
  35:main.c        ****     
  36:main.c        ****     CyGlobalIntEnable;
  50              		.loc 1 36 0
  51              		.syntax unified
  52              	@ 36 "main.c" 1
  53 000e 62B6     		CPSIE   i
  54              	@ 0 "" 2
  55              		.thumb
  56              		.syntax unified
  57              	.L3:
  58              	.LBB2:
  37:main.c        ****     
  38:main.c        ****     for(;;)
  39:main.c        ****     {
  40:main.c        ****         SPIM_Start(); //SPI kommunikation startes
  59              		.loc 1 40 0
  60 0010 FFF7FEFF 		bl	SPIM_Start
  61              	.LVL2:
  41:main.c        ****         
  42:main.c        ****        
  43:main.c        ****         SPIM_WriteTxData(char2); //karakter skrives til Slave
  62              		.loc 1 43 0
  63 0014 084B     		ldr	r3, .L5+4
  64 0016 1878     		ldrb	r0, [r3]	@ zero_extendqisi2
  65 0018 FFF7FEFF 		bl	SPIM_WriteTxData
  66              	.LVL3:
  67              	.L2:
  44:main.c        ****         while(!SPIM_ReadRxStatus()); //Der ventes til, der er klar
  68              		.loc 1 44 0 discriminator 1
  69 001c FFF7FEFF 		bl	SPIM_ReadRxStatus
  70              	.LVL4:
ARM GAS  C:\Users\marti\AppData\Local\Temp\ccIpx5TC.s 			page 3


  71 0020 0028     		cmp	r0, #0
  72 0022 FBD0     		beq	.L2
  45:main.c        ****         uint8 data = SPIM_ReadRxData();
  73              		.loc 1 45 0
  74 0024 FFF7FEFF 		bl	SPIM_ReadRxData
  75              	.LVL5:
  46:main.c        ****         UART_1_PutChar(data); //Den modtaget karakter sendes ud på terminal
  76              		.loc 1 46 0
  77 0028 FFF7FEFF 		bl	UART_1_PutChar
  78              	.LVL6:
  47:main.c        ****         UART_1_PutString("\r\n");
  79              		.loc 1 47 0
  80 002c 0348     		ldr	r0, .L5+8
  81 002e FFF7FEFF 		bl	UART_1_PutString
  82              	.LVL7:
  83              	.LBE2:
  48:main.c        ****         }
  84              		.loc 1 48 0
  85 0032 EDE7     		b	.L3
  86              	.L6:
  87              		.align	2
  88              	.L5:
  89 0034 00000000 		.word	ISR_UART_rx_handler
  90 0038 00000000 		.word	.LANCHOR0
  91 003c 00000000 		.word	.LC0
  92              		.cfi_endproc
  93              	.LFE63:
  94              		.size	main, .-main
  95              		.section	.text.Turnon,"ax",%progbits
  96              		.align	2
  97              		.global	Turnon
  98              		.thumb
  99              		.thumb_func
 100              		.type	Turnon, %function
 101              	Turnon:
 102              	.LFB66:
  49:main.c        ****         SPIM_ClearRxBuffer(); //clear buffer, så der er klar til næste transmission
  50:main.c        ****         
  51:main.c        ****         
  52:main.c        ****         /* Place your application code here. */
  53:main.c        ****         
  54:main.c        ****     //}
  55:main.c        ****         
  56:main.c        ****     SPIM_Stop(); //SPI stoppes
  57:main.c        ****     CyDelay(1000);
  58:main.c        **** }
  59:main.c        **** 
  60:main.c        **** CY_ISR(ISR_UART_rx_handler)
  61:main.c        **** {
  62:main.c        ****     uint8_t bytesToRead = UART_1_GetRxBufferSize();
  63:main.c        ****     while (bytesToRead > 0)
  64:main.c        ****     {
  65:main.c        ****         uint8_t byteReceived = UART_1_ReadRxData();
  66:main.c        ****         UART_1_WriteTxData(byteReceived); // echo back
  67:main.c        ****         
  68:main.c        ****         handleByteReceived(byteReceived);
  69:main.c        ****         
ARM GAS  C:\Users\marti\AppData\Local\Temp\ccIpx5TC.s 			page 4


  70:main.c        ****         bytesToRead--;
  71:main.c        ****     }
  72:main.c        **** }
  73:main.c        **** 
  74:main.c        **** void handleByteReceived(uint8_t byteReceived)
  75:main.c        **** {
  76:main.c        ****     //Ved at taste disse tegn i terminalen kaldes de respektive metoder
  77:main.c        ****     switch(byteReceived)
  78:main.c        ****     {
  79:main.c        ****         
  80:main.c        ****         case '1' :
  81:main.c        ****         {
  82:main.c        ****             Turnon(); //tænd LED
  83:main.c        ****         }
  84:main.c        ****         break;
  85:main.c        ****         
  86:main.c        ****         case '0' :
  87:main.c        ****         {
  88:main.c        ****             Turnoff(); //sluk LED
  89:main.c        ****             
  90:main.c        ****         }
  91:main.c        ****         break;
  92:main.c        ****         default :
  93:main.c        ****         {
  94:main.c        ****             // nothing
  95:main.c        ****         }
  96:main.c        ****         break;
  97:main.c        ****     }
  98:main.c        **** }
  99:main.c        **** 
 100:main.c        **** void Turnon()
 101:main.c        **** {
 103              		.loc 1 101 0
 104              		.cfi_startproc
 105              		@ args = 0, pretend = 0, frame = 0
 106              		@ frame_needed = 0, uses_anonymous_args = 0
 107 0000 08B5     		push	{r3, lr}
 108              		.cfi_def_cfa_offset 8
 109              		.cfi_offset 3, -8
 110              		.cfi_offset 14, -4
 102:main.c        ****     UART_1_PutString("Tend\r\n");
 111              		.loc 1 102 0
 112 0002 0348     		ldr	r0, .L9
 113 0004 FFF7FEFF 		bl	UART_1_PutString
 114              	.LVL8:
 103:main.c        ****     char2 = '1'; //set til tænd
 115              		.loc 1 103 0
 116 0008 3122     		movs	r2, #49
 117 000a 024B     		ldr	r3, .L9+4
 118 000c 1A70     		strb	r2, [r3]
 119 000e 08BD     		pop	{r3, pc}
 120              	.L10:
 121              		.align	2
 122              	.L9:
 123 0010 04000000 		.word	.LC1
 124 0014 00000000 		.word	.LANCHOR0
 125              		.cfi_endproc
ARM GAS  C:\Users\marti\AppData\Local\Temp\ccIpx5TC.s 			page 5


 126              	.LFE66:
 127              		.size	Turnon, .-Turnon
 128              		.section	.text.Turnoff,"ax",%progbits
 129              		.align	2
 130              		.global	Turnoff
 131              		.thumb
 132              		.thumb_func
 133              		.type	Turnoff, %function
 134              	Turnoff:
 135              	.LFB67:
 104:main.c        ****     
 105:main.c        **** }
 106:main.c        **** 
 107:main.c        **** 
 108:main.c        **** void Turnoff()
 109:main.c        **** {
 136              		.loc 1 109 0
 137              		.cfi_startproc
 138              		@ args = 0, pretend = 0, frame = 0
 139              		@ frame_needed = 0, uses_anonymous_args = 0
 140 0000 08B5     		push	{r3, lr}
 141              		.cfi_def_cfa_offset 8
 142              		.cfi_offset 3, -8
 143              		.cfi_offset 14, -4
 110:main.c        ****     
 111:main.c        ****     UART_1_PutString("Sluk\r\n");
 144              		.loc 1 111 0
 145 0002 0348     		ldr	r0, .L13
 146 0004 FFF7FEFF 		bl	UART_1_PutString
 147              	.LVL9:
 112:main.c        ****     char2 = '0'; //set til sluk
 148              		.loc 1 112 0
 149 0008 3022     		movs	r2, #48
 150 000a 024B     		ldr	r3, .L13+4
 151 000c 1A70     		strb	r2, [r3]
 152 000e 08BD     		pop	{r3, pc}
 153              	.L14:
 154              		.align	2
 155              	.L13:
 156 0010 0C000000 		.word	.LC2
 157 0014 00000000 		.word	.LANCHOR0
 158              		.cfi_endproc
 159              	.LFE67:
 160              		.size	Turnoff, .-Turnoff
 161              		.section	.text.handleByteReceived,"ax",%progbits
 162              		.align	2
 163              		.global	handleByteReceived
 164              		.thumb
 165              		.thumb_func
 166              		.type	handleByteReceived, %function
 167              	handleByteReceived:
 168              	.LFB65:
  75:main.c        ****     //Ved at taste disse tegn i terminalen kaldes de respektive metoder
 169              		.loc 1 75 0
 170              		.cfi_startproc
 171              		@ args = 0, pretend = 0, frame = 0
 172              		@ frame_needed = 0, uses_anonymous_args = 0
ARM GAS  C:\Users\marti\AppData\Local\Temp\ccIpx5TC.s 			page 6


 173              	.LVL10:
 174 0000 08B5     		push	{r3, lr}
 175              		.cfi_def_cfa_offset 8
 176              		.cfi_offset 3, -8
 177              		.cfi_offset 14, -4
  77:main.c        ****     {
 178              		.loc 1 77 0
 179 0002 3028     		cmp	r0, #48
 180 0004 04D0     		beq	.L17
 181 0006 3128     		cmp	r0, #49
 182 0008 04D1     		bne	.L15
  82:main.c        ****         }
 183              		.loc 1 82 0
 184 000a FFF7FEFF 		bl	Turnon
 185              	.LVL11:
  84:main.c        ****         
 186              		.loc 1 84 0
 187 000e 08BD     		pop	{r3, pc}
 188              	.LVL12:
 189              	.L17:
  88:main.c        ****             
 190              		.loc 1 88 0
 191 0010 FFF7FEFF 		bl	Turnoff
 192              	.LVL13:
 193              	.L15:
 194 0014 08BD     		pop	{r3, pc}
 195              		.cfi_endproc
 196              	.LFE65:
 197              		.size	handleByteReceived, .-handleByteReceived
 198 0016 00BF     		.section	.text.ISR_UART_rx_handler,"ax",%progbits
 199              		.align	2
 200              		.global	ISR_UART_rx_handler
 201              		.thumb
 202              		.thumb_func
 203              		.type	ISR_UART_rx_handler, %function
 204              	ISR_UART_rx_handler:
 205              	.LFB64:
  61:main.c        ****     uint8_t bytesToRead = UART_1_GetRxBufferSize();
 206              		.loc 1 61 0
 207              		.cfi_startproc
 208              		@ args = 0, pretend = 0, frame = 0
 209              		@ frame_needed = 0, uses_anonymous_args = 0
 210 0000 38B5     		push	{r3, r4, r5, lr}
 211              		.cfi_def_cfa_offset 16
 212              		.cfi_offset 3, -16
 213              		.cfi_offset 4, -12
 214              		.cfi_offset 5, -8
 215              		.cfi_offset 14, -4
  62:main.c        ****     while (bytesToRead > 0)
 216              		.loc 1 62 0
 217 0002 FFF7FEFF 		bl	UART_1_GetRxBufferSize
 218              	.LVL14:
 219 0006 0446     		mov	r4, r0
 220              	.LVL15:
  63:main.c        ****     {
 221              		.loc 1 63 0
 222 0008 09E0     		b	.L21
ARM GAS  C:\Users\marti\AppData\Local\Temp\ccIpx5TC.s 			page 7


 223              	.L22:
 224              	.LBB3:
  65:main.c        ****         UART_1_WriteTxData(byteReceived); // echo back
 225              		.loc 1 65 0
 226 000a FFF7FEFF 		bl	UART_1_ReadRxData
 227              	.LVL16:
 228 000e 0546     		mov	r5, r0
 229              	.LVL17:
  66:main.c        ****         
 230              		.loc 1 66 0
 231 0010 FFF7FEFF 		bl	UART_1_WriteTxData
 232              	.LVL18:
  68:main.c        ****         
 233              		.loc 1 68 0
 234 0014 2846     		mov	r0, r5
 235 0016 FFF7FEFF 		bl	handleByteReceived
 236              	.LVL19:
  70:main.c        ****     }
 237              		.loc 1 70 0
 238 001a 013C     		subs	r4, r4, #1
 239              	.LVL20:
 240 001c E4B2     		uxtb	r4, r4
 241              	.LVL21:
 242              	.L21:
 243              	.LBE3:
  63:main.c        ****     {
 244              		.loc 1 63 0
 245 001e 002C     		cmp	r4, #0
 246 0020 F3D1     		bne	.L22
  72:main.c        **** 
 247              		.loc 1 72 0
 248 0022 38BD     		pop	{r3, r4, r5, pc}
 249              		.cfi_endproc
 250              	.LFE64:
 251              		.size	ISR_UART_rx_handler, .-ISR_UART_rx_handler
 252              		.global	char2
 253              		.data
 254              		.set	.LANCHOR0,. + 0
 255              		.type	char2, %object
 256              		.size	char2, 1
 257              	char2:
 258 0000 30       		.byte	48
 259              		.section	.rodata.str1.4,"aMS",%progbits,1
 260              		.align	2
 261              	.LC0:
 262 0000 0D0A00   		.ascii	"\015\012\000"
 263 0003 00       		.space	1
 264              	.LC1:
 265 0004 54656E64 		.ascii	"Tend\015\012\000"
 265      0D0A00
 266 000b 00       		.space	1
 267              	.LC2:
 268 000c 536C756B 		.ascii	"Sluk\015\012\000"
 268      0D0A00
 269              		.text
 270              	.Letext0:
 271              		.file 2 "c:\\program files (x86)\\cypress\\psoc creator\\4.2\\psoc creator\\import\\gnu\\arm\\5.4.
ARM GAS  C:\Users\marti\AppData\Local\Temp\ccIpx5TC.s 			page 8


 272              		.file 3 "c:\\program files (x86)\\cypress\\psoc creator\\4.2\\psoc creator\\import\\gnu\\arm\\5.4.
 273              		.file 4 "Generated_Source\\PSoC5/cytypes.h"
 274              		.file 5 "Generated_Source\\PSoC5/core_cm3.h"
 275              		.file 6 "Generated_Source\\PSoC5/SPIM.h"
 276              		.file 7 "Generated_Source\\PSoC5/UART_1.h"
 277              		.file 8 "Generated_Source\\PSoC5/isr_uart_rx.h"