ARM GAS  C:\Users\cendi\AppData\Local\Temp\ccWuoiOU.s 			page 1


   1              		.syntax unified
   2              		.cpu cortex-m3
   3              		.fpu softvfp
   4              		.eabi_attribute 20, 1
   5              		.eabi_attribute 21, 1
   6              		.eabi_attribute 23, 3
   7              		.eabi_attribute 24, 1
   8              		.eabi_attribute 25, 1
   9              		.eabi_attribute 26, 1
  10              		.eabi_attribute 30, 1
  11              		.eabi_attribute 34, 1
  12              		.eabi_attribute 18, 4
  13              		.thumb
  14              		.syntax unified
  15              		.file	"main.c"
  16              		.text
  17              	.Ltext0:
  18              		.cfi_sections	.debug_frame
  19              		.section	.text.main,"ax",%progbits
  20              		.align	2
  21              		.global	main
  22              		.thumb
  23              		.thumb_func
  24              		.type	main, %function
  25              	main:
  26              	.LFB63:
  27              		.file 1 "main.c"
   1:main.c        **** /* ========================================
   2:main.c        ****  *
   3:main.c        ****  * Copyright YOUR COMPANY, THE YEAR
   4:main.c        ****  * All Rights Reserved
   5:main.c        ****  * UNPUBLISHED, LICENSED SOFTWARE.
   6:main.c        ****  *
   7:main.c        ****  * CONFIDENTIAL AND PROPRIETARY INFORMATION
   8:main.c        ****  * WHICH IS THE PROPERTY OF your company.
   9:main.c        ****  *
  10:main.c        ****  * ========================================
  11:main.c        **** */
  12:main.c        **** #include "project.h"
  13:main.c        **** 
  14:main.c        **** CY_ISR_PROTO(ISR_UART_rx_handler);
  15:main.c        **** void handleByteReceived(uint8_t byteReceived);
  16:main.c        **** void decreaseSpeed(void); //funktion til sænk fart
  17:main.c        **** void increaseSpeed(void); //funktion til forøg fart
  18:main.c        **** void driveForwards(void); //funktion til at køre bagud
  19:main.c        **** void driveBackwards(void); //funktion til at køre frem
  20:main.c        **** void stop(void); //funktion til at stoppe DC motor
  21:main.c        **** void driveRight();
  22:main.c        **** void driveLeft();
  23:main.c        **** static int speed = 0; //global variable til at styre værdi on Compare Match, så duty cycle ændre
  24:main.c        **** int main(void)
  25:main.c        **** {
  28              		.loc 1 25 0
  29              		.cfi_startproc
  30              		@ Volatile: function does not return.
  31              		@ args = 0, pretend = 0, frame = 0
  32              		@ frame_needed = 0, uses_anonymous_args = 0
ARM GAS  C:\Users\cendi\AppData\Local\Temp\ccWuoiOU.s 			page 2


  33 0000 08B5     		push	{r3, lr}
  34              		.cfi_def_cfa_offset 8
  35              		.cfi_offset 3, -8
  36              		.cfi_offset 14, -4
  26:main.c        ****     CyGlobalIntEnable; /* Enable global interrupts. */
  37              		.loc 1 26 0
  38              		.syntax unified
  39              	@ 26 "main.c" 1
  40 0002 62B6     		CPSIE   i
  41              	@ 0 "" 2
  27:main.c        **** 
  28:main.c        ****     /* Place your initialization/startup code here (e.g. MyInst_Start()) */
  29:main.c        ****     isr_uart_rx_StartEx(ISR_UART_rx_handler); //UART interrupt initialiseres
  42              		.loc 1 29 0
  43              		.thumb
  44              		.syntax unified
  45 0004 0F48     		ldr	r0, .L4
  46 0006 FFF7FEFF 		bl	isr_uart_rx_StartEx
  47              	.LVL0:
  30:main.c        ****     UART_1_Start(); //UART initialiseres
  48              		.loc 1 30 0
  49 000a FFF7FEFF 		bl	UART_1_Start
  50              	.LVL1:
  31:main.c        ****     PWM_1_Start(); //PWM initialiseres
  51              		.loc 1 31 0
  52 000e FFF7FEFF 		bl	PWM_1_Start
  53              	.LVL2:
  32:main.c        ****     
  33:main.c        ****     //beskrivelse til styring af DC motor via terminal
  34:main.c        ****     UART_1_PutString("DC-Motor-PWM application started\r\n");
  54              		.loc 1 34 0
  55 0012 0D48     		ldr	r0, .L4+4
  56 0014 FFF7FEFF 		bl	UART_1_PutString
  57              	.LVL3:
  35:main.c        ****     UART_1_PutString("0: Stop\r\n");
  58              		.loc 1 35 0
  59 0018 0C48     		ldr	r0, .L4+8
  60 001a FFF7FEFF 		bl	UART_1_PutString
  61              	.LVL4:
  36:main.c        ****     UART_1_PutString("1: Drive forwards\r\n");
  62              		.loc 1 36 0
  63 001e 0C48     		ldr	r0, .L4+12
  64 0020 FFF7FEFF 		bl	UART_1_PutString
  65              	.LVL5:
  37:main.c        ****     UART_1_PutString("2: Drive backwards\r\n");
  66              		.loc 1 37 0
  67 0024 0B48     		ldr	r0, .L4+16
  68 0026 FFF7FEFF 		bl	UART_1_PutString
  69              	.LVL6:
  38:main.c        ****     UART_1_PutString("q: Decrease speed\r\n");
  70              		.loc 1 38 0
  71 002a 0B48     		ldr	r0, .L4+20
  72 002c FFF7FEFF 		bl	UART_1_PutString
  73              	.LVL7:
  39:main.c        ****     UART_1_PutString("w: Increase speed\r\n");
  74              		.loc 1 39 0
  75 0030 0A48     		ldr	r0, .L4+24
ARM GAS  C:\Users\cendi\AppData\Local\Temp\ccWuoiOU.s 			page 3


  76 0032 FFF7FEFF 		bl	UART_1_PutString
  77              	.LVL8:
  40:main.c        ****     UART_1_PutString("o: Drive Left\r\n");
  78              		.loc 1 40 0
  79 0036 0A48     		ldr	r0, .L4+28
  80 0038 FFF7FEFF 		bl	UART_1_PutString
  81              	.LVL9:
  41:main.c        ****     UART_1_PutString("p: Drive Right\r\n");
  82              		.loc 1 41 0
  83 003c 0948     		ldr	r0, .L4+32
  84 003e FFF7FEFF 		bl	UART_1_PutString
  85              	.LVL10:
  86              	.L2:
  87 0042 FEE7     		b	.L2
  88              	.L5:
  89              		.align	2
  90              	.L4:
  91 0044 00000000 		.word	ISR_UART_rx_handler
  92 0048 00000000 		.word	.LC0
  93 004c 24000000 		.word	.LC1
  94 0050 30000000 		.word	.LC2
  95 0054 44000000 		.word	.LC3
  96 0058 5C000000 		.word	.LC4
  97 005c 70000000 		.word	.LC5
  98 0060 84000000 		.word	.LC6
  99 0064 94000000 		.word	.LC7
 100              		.cfi_endproc
 101              	.LFE63:
 102              		.size	main, .-main
 103              		.section	.text.decreaseSpeed,"ax",%progbits
 104              		.align	2
 105              		.global	decreaseSpeed
 106              		.thumb
 107              		.thumb_func
 108              		.type	decreaseSpeed, %function
 109              	decreaseSpeed:
 110              	.LFB66:
  42:main.c        **** 
  43:main.c        ****     for(;;)
  44:main.c        ****     {
  45:main.c        ****         /* Place your application code here. */
  46:main.c        ****     }
  47:main.c        **** }
  48:main.c        **** 
  49:main.c        **** CY_ISR(ISR_UART_rx_handler)
  50:main.c        **** {
  51:main.c        ****     uint8_t bytesToRead = UART_1_GetRxBufferSize();
  52:main.c        ****     while (bytesToRead > 0)
  53:main.c        ****     {
  54:main.c        ****         uint8_t byteReceived = UART_1_ReadRxData();
  55:main.c        ****         UART_1_WriteTxData(byteReceived); // echo back
  56:main.c        ****         
  57:main.c        ****         handleByteReceived(byteReceived);
  58:main.c        ****         
  59:main.c        ****         bytesToRead--;
  60:main.c        ****     }
  61:main.c        **** }
ARM GAS  C:\Users\cendi\AppData\Local\Temp\ccWuoiOU.s 			page 4


  62:main.c        **** 
  63:main.c        **** void handleByteReceived(uint8_t byteReceived)
  64:main.c        **** {
  65:main.c        ****     //Ved at taste disse tegn i terminalen kaldes de respektive metoder
  66:main.c        ****     switch(byteReceived)
  67:main.c        ****     {
  68:main.c        ****         case 'q' :
  69:main.c        ****         {
  70:main.c        ****             decreaseSpeed();
  71:main.c        ****         }
  72:main.c        ****         break;
  73:main.c        ****         case 'w' :
  74:main.c        ****         {
  75:main.c        ****             increaseSpeed();
  76:main.c        ****         }
  77:main.c        ****         break;
  78:main.c        ****         case '1' :
  79:main.c        ****         {
  80:main.c        ****             driveForwards();
  81:main.c        ****         }
  82:main.c        ****         break;
  83:main.c        ****         case '2' :
  84:main.c        ****         {
  85:main.c        ****             driveBackwards();
  86:main.c        ****         }
  87:main.c        ****         break;
  88:main.c        ****         case '0' :
  89:main.c        ****         {
  90:main.c        ****             stop();
  91:main.c        ****             
  92:main.c        ****         }
  93:main.c        ****         break;
  94:main.c        ****         case 'o':
  95:main.c        ****         {
  96:main.c        ****             driveLeft();
  97:main.c        ****         }
  98:main.c        ****         break;
  99:main.c        ****         case 'p':
 100:main.c        ****         {
 101:main.c        ****             driveRight();
 102:main.c        ****         }
 103:main.c        ****         break;
 104:main.c        ****         default :
 105:main.c        ****         {
 106:main.c        ****             // nothing
 107:main.c        ****         }
 108:main.c        ****         break;
 109:main.c        ****     }
 110:main.c        **** }
 111:main.c        **** 
 112:main.c        **** void decreaseSpeed()
 113:main.c        **** {
 111              		.loc 1 113 0
 112              		.cfi_startproc
 113              		@ args = 0, pretend = 0, frame = 0
 114              		@ frame_needed = 0, uses_anonymous_args = 0
 115 0000 08B5     		push	{r3, lr}
ARM GAS  C:\Users\cendi\AppData\Local\Temp\ccWuoiOU.s 			page 5


 116              		.cfi_def_cfa_offset 8
 117              		.cfi_offset 3, -8
 118              		.cfi_offset 14, -4
 114:main.c        ****     UART_1_PutString("Decreasing speed\r\n");
 119              		.loc 1 114 0
 120 0002 0648     		ldr	r0, .L9
 121 0004 FFF7FEFF 		bl	UART_1_PutString
 122              	.LVL11:
 115:main.c        ****     if(speed>0) {
 123              		.loc 1 115 0
 124 0008 054B     		ldr	r3, .L9+4
 125 000a 1868     		ldr	r0, [r3]
 126 000c 0028     		cmp	r0, #0
 127 000e 04DD     		ble	.L6
 116:main.c        ****     speed=speed-1;
 128              		.loc 1 116 0
 129 0010 0138     		subs	r0, r0, #1
 130 0012 1860     		str	r0, [r3]
 117:main.c        ****     //toggle on compare match af speed
 118:main.c        ****     PWM_1_WriteCompare(speed);
 131              		.loc 1 118 0
 132 0014 C0B2     		uxtb	r0, r0
 133 0016 FFF7FEFF 		bl	PWM_1_WriteCompare
 134              	.LVL12:
 135              	.L6:
 136 001a 08BD     		pop	{r3, pc}
 137              	.L10:
 138              		.align	2
 139              	.L9:
 140 001c A8000000 		.word	.LC8
 141 0020 00000000 		.word	.LANCHOR0
 142              		.cfi_endproc
 143              	.LFE66:
 144              		.size	decreaseSpeed, .-decreaseSpeed
 145              		.section	.text.increaseSpeed,"ax",%progbits
 146              		.align	2
 147              		.global	increaseSpeed
 148              		.thumb
 149              		.thumb_func
 150              		.type	increaseSpeed, %function
 151              	increaseSpeed:
 152              	.LFB67:
 119:main.c        ****     }
 120:main.c        ****     
 121:main.c        **** }
 122:main.c        **** 
 123:main.c        **** void increaseSpeed()
 124:main.c        **** {
 153              		.loc 1 124 0
 154              		.cfi_startproc
 155              		@ args = 0, pretend = 0, frame = 0
 156              		@ frame_needed = 0, uses_anonymous_args = 0
 157 0000 08B5     		push	{r3, lr}
 158              		.cfi_def_cfa_offset 8
 159              		.cfi_offset 3, -8
 160              		.cfi_offset 14, -4
 125:main.c        ****     UART_1_PutString("Increasing speed\r\n");
ARM GAS  C:\Users\cendi\AppData\Local\Temp\ccWuoiOU.s 			page 6


 161              		.loc 1 125 0
 162 0002 0648     		ldr	r0, .L14
 163 0004 FFF7FEFF 		bl	UART_1_PutString
 164              	.LVL13:
 126:main.c        ****     if(speed<10) {
 165              		.loc 1 126 0
 166 0008 054B     		ldr	r3, .L14+4
 167 000a 1868     		ldr	r0, [r3]
 168 000c 0928     		cmp	r0, #9
 169 000e 04DC     		bgt	.L11
 127:main.c        ****     speed=speed+1;
 170              		.loc 1 127 0
 171 0010 0130     		adds	r0, r0, #1
 172 0012 1860     		str	r0, [r3]
 128:main.c        ****     //toggle on compare match af speed
 129:main.c        ****     PWM_1_WriteCompare(speed);
 173              		.loc 1 129 0
 174 0014 C0B2     		uxtb	r0, r0
 175 0016 FFF7FEFF 		bl	PWM_1_WriteCompare
 176              	.LVL14:
 177              	.L11:
 178 001a 08BD     		pop	{r3, pc}
 179              	.L15:
 180              		.align	2
 181              	.L14:
 182 001c BC000000 		.word	.LC9
 183 0020 00000000 		.word	.LANCHOR0
 184              		.cfi_endproc
 185              	.LFE67:
 186              		.size	increaseSpeed, .-increaseSpeed
 187              		.section	.text.driveForwards,"ax",%progbits
 188              		.align	2
 189              		.global	driveForwards
 190              		.thumb
 191              		.thumb_func
 192              		.type	driveForwards, %function
 193              	driveForwards:
 194              	.LFB68:
 130:main.c        ****     }
 131:main.c        **** 
 132:main.c        **** }
 133:main.c        **** 
 134:main.c        **** void driveForwards()
 135:main.c        **** {
 195              		.loc 1 135 0
 196              		.cfi_startproc
 197              		@ args = 0, pretend = 0, frame = 0
 198              		@ frame_needed = 0, uses_anonymous_args = 0
 199 0000 08B5     		push	{r3, lr}
 200              		.cfi_def_cfa_offset 8
 201              		.cfi_offset 3, -8
 202              		.cfi_offset 14, -4
 136:main.c        ****     UART_1_PutString("Set direction: forwards\r\n");
 203              		.loc 1 136 0
 204 0002 0B48     		ldr	r0, .L18
 205 0004 FFF7FEFF 		bl	UART_1_PutString
 206              	.LVL15:
ARM GAS  C:\Users\cendi\AppData\Local\Temp\ccWuoiOU.s 			page 7


 137:main.c        ****     //EN og IN1 sættes til høj for at køre fremad
 138:main.c        ****     Pin_EN_Write(1);
 207              		.loc 1 138 0
 208 0008 0120     		movs	r0, #1
 209 000a FFF7FEFF 		bl	Pin_EN_Write
 210              	.LVL16:
 139:main.c        ****     Pin_LN1_Write(1);
 211              		.loc 1 139 0
 212 000e 0120     		movs	r0, #1
 213 0010 FFF7FEFF 		bl	Pin_LN1_Write
 214              	.LVL17:
 140:main.c        ****     Pin_LN2_Write(0);
 215              		.loc 1 140 0
 216 0014 0020     		movs	r0, #0
 217 0016 FFF7FEFF 		bl	Pin_LN2_Write
 218              	.LVL18:
 141:main.c        ****     Pin_EN2_Write(1);
 219              		.loc 1 141 0
 220 001a 0120     		movs	r0, #1
 221 001c FFF7FEFF 		bl	Pin_EN2_Write
 222              	.LVL19:
 142:main.c        ****     Pin_LN3_Write(1);
 223              		.loc 1 142 0
 224 0020 0120     		movs	r0, #1
 225 0022 FFF7FEFF 		bl	Pin_LN3_Write
 226              	.LVL20:
 143:main.c        ****     Pin_LN4_Write(0);
 227              		.loc 1 143 0
 228 0026 0020     		movs	r0, #0
 229 0028 FFF7FEFF 		bl	Pin_LN4_Write
 230              	.LVL21:
 231 002c 08BD     		pop	{r3, pc}
 232              	.L19:
 233 002e 00BF     		.align	2
 234              	.L18:
 235 0030 D0000000 		.word	.LC10
 236              		.cfi_endproc
 237              	.LFE68:
 238              		.size	driveForwards, .-driveForwards
 239              		.section	.text.driveLeft,"ax",%progbits
 240              		.align	2
 241              		.global	driveLeft
 242              		.thumb
 243              		.thumb_func
 244              		.type	driveLeft, %function
 245              	driveLeft:
 246              	.LFB69:
 144:main.c        ****     
 145:main.c        **** }
 146:main.c        **** 
 147:main.c        **** void driveLeft()
 148:main.c        **** {
 247              		.loc 1 148 0
 248              		.cfi_startproc
 249              		@ args = 0, pretend = 0, frame = 0
 250              		@ frame_needed = 0, uses_anonymous_args = 0
 251 0000 08B5     		push	{r3, lr}
ARM GAS  C:\Users\cendi\AppData\Local\Temp\ccWuoiOU.s 			page 8


 252              		.cfi_def_cfa_offset 8
 253              		.cfi_offset 3, -8
 254              		.cfi_offset 14, -4
 149:main.c        ****     UART_1_PutString("Set direction: Left\r\n");
 255              		.loc 1 149 0
 256 0002 0B48     		ldr	r0, .L22
 257 0004 FFF7FEFF 		bl	UART_1_PutString
 258              	.LVL22:
 150:main.c        ****     //EN og IN1 sættes til høj for at køre fremad
 151:main.c        ****     Pin_EN_Write(1);
 259              		.loc 1 151 0
 260 0008 0120     		movs	r0, #1
 261 000a FFF7FEFF 		bl	Pin_EN_Write
 262              	.LVL23:
 152:main.c        ****     Pin_LN1_Write(1);
 263              		.loc 1 152 0
 264 000e 0120     		movs	r0, #1
 265 0010 FFF7FEFF 		bl	Pin_LN1_Write
 266              	.LVL24:
 153:main.c        ****     Pin_LN2_Write(0);
 267              		.loc 1 153 0
 268 0014 0020     		movs	r0, #0
 269 0016 FFF7FEFF 		bl	Pin_LN2_Write
 270              	.LVL25:
 154:main.c        ****     
 155:main.c        ****     Pin_EN2_Write(0);
 271              		.loc 1 155 0
 272 001a 0020     		movs	r0, #0
 273 001c FFF7FEFF 		bl	Pin_EN2_Write
 274              	.LVL26:
 156:main.c        ****     Pin_LN3_Write(0);
 275              		.loc 1 156 0
 276 0020 0020     		movs	r0, #0
 277 0022 FFF7FEFF 		bl	Pin_LN3_Write
 278              	.LVL27:
 157:main.c        ****     Pin_LN4_Write(0);
 279              		.loc 1 157 0
 280 0026 0020     		movs	r0, #0
 281 0028 FFF7FEFF 		bl	Pin_LN4_Write
 282              	.LVL28:
 283 002c 08BD     		pop	{r3, pc}
 284              	.L23:
 285 002e 00BF     		.align	2
 286              	.L22:
 287 0030 EC000000 		.word	.LC11
 288              		.cfi_endproc
 289              	.LFE69:
 290              		.size	driveLeft, .-driveLeft
 291              		.section	.text.driveRight,"ax",%progbits
 292              		.align	2
 293              		.global	driveRight
 294              		.thumb
 295              		.thumb_func
 296              		.type	driveRight, %function
 297              	driveRight:
 298              	.LFB70:
 158:main.c        ****     
ARM GAS  C:\Users\cendi\AppData\Local\Temp\ccWuoiOU.s 			page 9


 159:main.c        **** }
 160:main.c        **** 
 161:main.c        **** void driveRight()
 162:main.c        **** {
 299              		.loc 1 162 0
 300              		.cfi_startproc
 301              		@ args = 0, pretend = 0, frame = 0
 302              		@ frame_needed = 0, uses_anonymous_args = 0
 303 0000 08B5     		push	{r3, lr}
 304              		.cfi_def_cfa_offset 8
 305              		.cfi_offset 3, -8
 306              		.cfi_offset 14, -4
 163:main.c        ****     UART_1_PutString("Set direction: Right\r\n");
 307              		.loc 1 163 0
 308 0002 0B48     		ldr	r0, .L26
 309 0004 FFF7FEFF 		bl	UART_1_PutString
 310              	.LVL29:
 164:main.c        ****     //EN og IN1 sættes til høj for at køre fremad
 165:main.c        ****     Pin_EN_Write(0);
 311              		.loc 1 165 0
 312 0008 0020     		movs	r0, #0
 313 000a FFF7FEFF 		bl	Pin_EN_Write
 314              	.LVL30:
 166:main.c        ****     Pin_LN1_Write(0);
 315              		.loc 1 166 0
 316 000e 0020     		movs	r0, #0
 317 0010 FFF7FEFF 		bl	Pin_LN1_Write
 318              	.LVL31:
 167:main.c        ****     Pin_LN2_Write(0);
 319              		.loc 1 167 0
 320 0014 0020     		movs	r0, #0
 321 0016 FFF7FEFF 		bl	Pin_LN2_Write
 322              	.LVL32:
 168:main.c        ****     
 169:main.c        ****     Pin_EN2_Write(1);
 323              		.loc 1 169 0
 324 001a 0120     		movs	r0, #1
 325 001c FFF7FEFF 		bl	Pin_EN2_Write
 326              	.LVL33:
 170:main.c        ****     Pin_LN3_Write(1);
 327              		.loc 1 170 0
 328 0020 0120     		movs	r0, #1
 329 0022 FFF7FEFF 		bl	Pin_LN3_Write
 330              	.LVL34:
 171:main.c        ****     Pin_LN4_Write(0);
 331              		.loc 1 171 0
 332 0026 0020     		movs	r0, #0
 333 0028 FFF7FEFF 		bl	Pin_LN4_Write
 334              	.LVL35:
 335 002c 08BD     		pop	{r3, pc}
 336              	.L27:
 337 002e 00BF     		.align	2
 338              	.L26:
 339 0030 04010000 		.word	.LC12
 340              		.cfi_endproc
 341              	.LFE70:
 342              		.size	driveRight, .-driveRight
ARM GAS  C:\Users\cendi\AppData\Local\Temp\ccWuoiOU.s 			page 10


 343              		.section	.text.driveBackwards,"ax",%progbits
 344              		.align	2
 345              		.global	driveBackwards
 346              		.thumb
 347              		.thumb_func
 348              		.type	driveBackwards, %function
 349              	driveBackwards:
 350              	.LFB71:
 172:main.c        ****     
 173:main.c        **** }
 174:main.c        **** 
 175:main.c        **** void driveBackwards()
 176:main.c        **** {
 351              		.loc 1 176 0
 352              		.cfi_startproc
 353              		@ args = 0, pretend = 0, frame = 0
 354              		@ frame_needed = 0, uses_anonymous_args = 0
 355 0000 08B5     		push	{r3, lr}
 356              		.cfi_def_cfa_offset 8
 357              		.cfi_offset 3, -8
 358              		.cfi_offset 14, -4
 177:main.c        ****     UART_1_PutString("Set direction: backwards\r\n");
 359              		.loc 1 177 0
 360 0002 0B48     		ldr	r0, .L30
 361 0004 FFF7FEFF 		bl	UART_1_PutString
 362              	.LVL36:
 178:main.c        ****     //EN og IN2 sættes til høj for at køre bagud
 179:main.c        ****     Pin_EN_Write(1);
 363              		.loc 1 179 0
 364 0008 0120     		movs	r0, #1
 365 000a FFF7FEFF 		bl	Pin_EN_Write
 366              	.LVL37:
 180:main.c        ****     Pin_LN1_Write(0);
 367              		.loc 1 180 0
 368 000e 0020     		movs	r0, #0
 369 0010 FFF7FEFF 		bl	Pin_LN1_Write
 370              	.LVL38:
 181:main.c        ****     Pin_LN2_Write(1);
 371              		.loc 1 181 0
 372 0014 0120     		movs	r0, #1
 373 0016 FFF7FEFF 		bl	Pin_LN2_Write
 374              	.LVL39:
 182:main.c        ****     Pin_EN2_Write(1);
 375              		.loc 1 182 0
 376 001a 0120     		movs	r0, #1
 377 001c FFF7FEFF 		bl	Pin_EN2_Write
 378              	.LVL40:
 183:main.c        ****     Pin_LN3_Write(0);
 379              		.loc 1 183 0
 380 0020 0020     		movs	r0, #0
 381 0022 FFF7FEFF 		bl	Pin_LN3_Write
 382              	.LVL41:
 184:main.c        ****     Pin_LN4_Write(1);
 383              		.loc 1 184 0
 384 0026 0120     		movs	r0, #1
 385 0028 FFF7FEFF 		bl	Pin_LN4_Write
 386              	.LVL42:
ARM GAS  C:\Users\cendi\AppData\Local\Temp\ccWuoiOU.s 			page 11


 387 002c 08BD     		pop	{r3, pc}
 388              	.L31:
 389 002e 00BF     		.align	2
 390              	.L30:
 391 0030 1C010000 		.word	.LC13
 392              		.cfi_endproc
 393              	.LFE71:
 394              		.size	driveBackwards, .-driveBackwards
 395              		.section	.text.stop,"ax",%progbits
 396              		.align	2
 397              		.global	stop
 398              		.thumb
 399              		.thumb_func
 400              		.type	stop, %function
 401              	stop:
 402              	.LFB72:
 185:main.c        **** }
 186:main.c        **** 
 187:main.c        **** void stop()
 188:main.c        **** {
 403              		.loc 1 188 0
 404              		.cfi_startproc
 405              		@ args = 0, pretend = 0, frame = 0
 406              		@ frame_needed = 0, uses_anonymous_args = 0
 407 0000 08B5     		push	{r3, lr}
 408              		.cfi_def_cfa_offset 8
 409              		.cfi_offset 3, -8
 410              		.cfi_offset 14, -4
 189:main.c        ****     
 190:main.c        ****     UART_1_PutString("Stop\r\n");
 411              		.loc 1 190 0
 412 0002 0B48     		ldr	r0, .L34
 413 0004 FFF7FEFF 		bl	UART_1_PutString
 414              	.LVL43:
 191:main.c        ****     Pin_EN_Write(1);
 415              		.loc 1 191 0
 416 0008 0120     		movs	r0, #1
 417 000a FFF7FEFF 		bl	Pin_EN_Write
 418              	.LVL44:
 192:main.c        ****     //break mode er sat ved IN1 og IN2 til høj
 193:main.c        ****     Pin_LN1_Write(1);
 419              		.loc 1 193 0
 420 000e 0120     		movs	r0, #1
 421 0010 FFF7FEFF 		bl	Pin_LN1_Write
 422              	.LVL45:
 194:main.c        ****     Pin_LN2_Write(1);
 423              		.loc 1 194 0
 424 0014 0120     		movs	r0, #1
 425 0016 FFF7FEFF 		bl	Pin_LN2_Write
 426              	.LVL46:
 195:main.c        ****     Pin_EN2_Write(1);
 427              		.loc 1 195 0
 428 001a 0120     		movs	r0, #1
 429 001c FFF7FEFF 		bl	Pin_EN2_Write
 430              	.LVL47:
 196:main.c        ****     Pin_LN3_Write(1);
 431              		.loc 1 196 0
ARM GAS  C:\Users\cendi\AppData\Local\Temp\ccWuoiOU.s 			page 12


 432 0020 0120     		movs	r0, #1
 433 0022 FFF7FEFF 		bl	Pin_LN3_Write
 434              	.LVL48:
 197:main.c        ****     Pin_LN4_Write(1);
 435              		.loc 1 197 0
 436 0026 0120     		movs	r0, #1
 437 0028 FFF7FEFF 		bl	Pin_LN4_Write
 438              	.LVL49:
 439 002c 08BD     		pop	{r3, pc}
 440              	.L35:
 441 002e 00BF     		.align	2
 442              	.L34:
 443 0030 38010000 		.word	.LC14
 444              		.cfi_endproc
 445              	.LFE72:
 446              		.size	stop, .-stop
 447              		.section	.text.handleByteReceived,"ax",%progbits
 448              		.align	2
 449              		.global	handleByteReceived
 450              		.thumb
 451              		.thumb_func
 452              		.type	handleByteReceived, %function
 453              	handleByteReceived:
 454              	.LFB65:
  64:main.c        ****     //Ved at taste disse tegn i terminalen kaldes de respektive metoder
 455              		.loc 1 64 0
 456              		.cfi_startproc
 457              		@ args = 0, pretend = 0, frame = 0
 458              		@ frame_needed = 0, uses_anonymous_args = 0
 459              	.LVL50:
 460 0000 08B5     		push	{r3, lr}
 461              		.cfi_def_cfa_offset 8
 462              		.cfi_offset 3, -8
 463              		.cfi_offset 14, -4
  66:main.c        ****     {
 464              		.loc 1 66 0
 465 0002 6F28     		cmp	r0, #111
 466 0004 1CD0     		beq	.L38
 467 0006 06D8     		bhi	.L39
 468 0008 3128     		cmp	r0, #49
 469 000a 10D0     		beq	.L40
 470 000c 3228     		cmp	r0, #50
 471 000e 11D0     		beq	.L41
 472 0010 3028     		cmp	r0, #48
 473 0012 1AD1     		bne	.L36
 474 0014 11E0     		b	.L42
 475              	.L39:
 476 0016 7128     		cmp	r0, #113
 477 0018 03D0     		beq	.L43
 478 001a 14D3     		bcc	.L44
 479 001c 7728     		cmp	r0, #119
 480 001e 03D0     		beq	.L45
 481 0020 08BD     		pop	{r3, pc}
 482              	.L43:
  70:main.c        ****         }
 483              		.loc 1 70 0
 484 0022 FFF7FEFF 		bl	decreaseSpeed
ARM GAS  C:\Users\cendi\AppData\Local\Temp\ccWuoiOU.s 			page 13


 485              	.LVL51:
  72:main.c        ****         case 'w' :
 486              		.loc 1 72 0
 487 0026 08BD     		pop	{r3, pc}
 488              	.LVL52:
 489              	.L45:
  75:main.c        ****         }
 490              		.loc 1 75 0
 491 0028 FFF7FEFF 		bl	increaseSpeed
 492              	.LVL53:
  77:main.c        ****         case '1' :
 493              		.loc 1 77 0
 494 002c 08BD     		pop	{r3, pc}
 495              	.LVL54:
 496              	.L40:
  80:main.c        ****         }
 497              		.loc 1 80 0
 498 002e FFF7FEFF 		bl	driveForwards
 499              	.LVL55:
  82:main.c        ****         case '2' :
 500              		.loc 1 82 0
 501 0032 08BD     		pop	{r3, pc}
 502              	.LVL56:
 503              	.L41:
  85:main.c        ****         }
 504              		.loc 1 85 0
 505 0034 FFF7FEFF 		bl	driveBackwards
 506              	.LVL57:
  87:main.c        ****         case '0' :
 507              		.loc 1 87 0
 508 0038 08BD     		pop	{r3, pc}
 509              	.LVL58:
 510              	.L42:
  90:main.c        ****             
 511              		.loc 1 90 0
 512 003a FFF7FEFF 		bl	stop
 513              	.LVL59:
  93:main.c        ****         case 'o':
 514              		.loc 1 93 0
 515 003e 08BD     		pop	{r3, pc}
 516              	.LVL60:
 517              	.L38:
  96:main.c        ****         }
 518              		.loc 1 96 0
 519 0040 FFF7FEFF 		bl	driveLeft
 520              	.LVL61:
  98:main.c        ****         case 'p':
 521              		.loc 1 98 0
 522 0044 08BD     		pop	{r3, pc}
 523              	.LVL62:
 524              	.L44:
 101:main.c        ****         }
 525              		.loc 1 101 0
 526 0046 FFF7FEFF 		bl	driveRight
 527              	.LVL63:
 528              	.L36:
 529 004a 08BD     		pop	{r3, pc}
ARM GAS  C:\Users\cendi\AppData\Local\Temp\ccWuoiOU.s 			page 14


 530              		.cfi_endproc
 531              	.LFE65:
 532              		.size	handleByteReceived, .-handleByteReceived
 533              		.section	.text.ISR_UART_rx_handler,"ax",%progbits
 534              		.align	2
 535              		.global	ISR_UART_rx_handler
 536              		.thumb
 537              		.thumb_func
 538              		.type	ISR_UART_rx_handler, %function
 539              	ISR_UART_rx_handler:
 540              	.LFB64:
  50:main.c        ****     uint8_t bytesToRead = UART_1_GetRxBufferSize();
 541              		.loc 1 50 0
 542              		.cfi_startproc
 543              		@ args = 0, pretend = 0, frame = 0
 544              		@ frame_needed = 0, uses_anonymous_args = 0
 545 0000 38B5     		push	{r3, r4, r5, lr}
 546              		.cfi_def_cfa_offset 16
 547              		.cfi_offset 3, -16
 548              		.cfi_offset 4, -12
 549              		.cfi_offset 5, -8
 550              		.cfi_offset 14, -4
  51:main.c        ****     while (bytesToRead > 0)
 551              		.loc 1 51 0
 552 0002 FFF7FEFF 		bl	UART_1_GetRxBufferSize
 553              	.LVL64:
 554 0006 0446     		mov	r4, r0
 555              	.LVL65:
  52:main.c        ****     {
 556              		.loc 1 52 0
 557 0008 09E0     		b	.L48
 558              	.L49:
 559              	.LBB2:
  54:main.c        ****         UART_1_WriteTxData(byteReceived); // echo back
 560              		.loc 1 54 0
 561 000a FFF7FEFF 		bl	UART_1_ReadRxData
 562              	.LVL66:
 563 000e 0546     		mov	r5, r0
 564              	.LVL67:
  55:main.c        ****         
 565              		.loc 1 55 0
 566 0010 FFF7FEFF 		bl	UART_1_WriteTxData
 567              	.LVL68:
  57:main.c        ****         
 568              		.loc 1 57 0
 569 0014 2846     		mov	r0, r5
 570 0016 FFF7FEFF 		bl	handleByteReceived
 571              	.LVL69:
  59:main.c        ****     }
 572              		.loc 1 59 0
 573 001a 013C     		subs	r4, r4, #1
 574              	.LVL70:
 575 001c E4B2     		uxtb	r4, r4
 576              	.LVL71:
 577              	.L48:
 578              	.LBE2:
  52:main.c        ****     {
ARM GAS  C:\Users\cendi\AppData\Local\Temp\ccWuoiOU.s 			page 15


 579              		.loc 1 52 0
 580 001e 002C     		cmp	r4, #0
 581 0020 F3D1     		bne	.L49
  61:main.c        **** 
 582              		.loc 1 61 0
 583 0022 38BD     		pop	{r3, r4, r5, pc}
 584              		.cfi_endproc
 585              	.LFE64:
 586              		.size	ISR_UART_rx_handler, .-ISR_UART_rx_handler
 587              		.section	.rodata.str1.4,"aMS",%progbits,1
 588              		.align	2
 589              	.LC0:
 590 0000 44432D4D 		.ascii	"DC-Motor-PWM application started\015\012\000"
 590      6F746F72 
 590      2D50574D 
 590      20617070 
 590      6C696361 
 591 0023 00       		.space	1
 592              	.LC1:
 593 0024 303A2053 		.ascii	"0: Stop\015\012\000"
 593      746F700D 
 593      0A00
 594 002e 0000     		.space	2
 595              	.LC2:
 596 0030 313A2044 		.ascii	"1: Drive forwards\015\012\000"
 596      72697665 
 596      20666F72 
 596      77617264 
 596      730D0A00 
 597              	.LC3:
 598 0044 323A2044 		.ascii	"2: Drive backwards\015\012\000"
 598      72697665 
 598      20626163 
 598      6B776172 
 598      64730D0A 
 599 0059 000000   		.space	3
 600              	.LC4:
 601 005c 713A2044 		.ascii	"q: Decrease speed\015\012\000"
 601      65637265 
 601      61736520 
 601      73706565 
 601      640D0A00 
 602              	.LC5:
 603 0070 773A2049 		.ascii	"w: Increase speed\015\012\000"
 603      6E637265 
 603      61736520 
 603      73706565 
 603      640D0A00 
 604              	.LC6:
 605 0084 6F3A2044 		.ascii	"o: Drive Left\015\012\000"
 605      72697665 
 605      204C6566 
 605      740D0A00 
 606              	.LC7:
 607 0094 703A2044 		.ascii	"p: Drive Right\015\012\000"
 607      72697665 
 607      20526967 
ARM GAS  C:\Users\cendi\AppData\Local\Temp\ccWuoiOU.s 			page 16


 607      68740D0A 
 607      00
 608 00a5 000000   		.space	3
 609              	.LC8:
 610 00a8 44656372 		.ascii	"Decreasing speed\015\012\000"
 610      65617369 
 610      6E672073 
 610      70656564 
 610      0D0A00
 611 00bb 00       		.space	1
 612              	.LC9:
 613 00bc 496E6372 		.ascii	"Increasing speed\015\012\000"
 613      65617369 
 613      6E672073 
 613      70656564 
 613      0D0A00
 614 00cf 00       		.space	1
 615              	.LC10:
 616 00d0 53657420 		.ascii	"Set direction: forwards\015\012\000"
 616      64697265 
 616      6374696F 
 616      6E3A2066 
 616      6F727761 
 617 00ea 0000     		.space	2
 618              	.LC11:
 619 00ec 53657420 		.ascii	"Set direction: Left\015\012\000"
 619      64697265 
 619      6374696F 
 619      6E3A204C 
 619      6566740D 
 620 0102 0000     		.space	2
 621              	.LC12:
 622 0104 53657420 		.ascii	"Set direction: Right\015\012\000"
 622      64697265 
 622      6374696F 
 622      6E3A2052 
 622      69676874 
 623 011b 00       		.space	1
 624              	.LC13:
 625 011c 53657420 		.ascii	"Set direction: backwards\015\012\000"
 625      64697265 
 625      6374696F 
 625      6E3A2062 
 625      61636B77 
 626 0137 00       		.space	1
 627              	.LC14:
 628 0138 53746F70 		.ascii	"Stop\015\012\000"
 628      0D0A00
 629              		.bss
 630              		.align	2
 631              		.set	.LANCHOR0,. + 0
 632              		.type	speed, %object
 633              		.size	speed, 4
 634              	speed:
 635 0000 00000000 		.space	4
 636              		.text
 637              	.Letext0:
ARM GAS  C:\Users\cendi\AppData\Local\Temp\ccWuoiOU.s 			page 17


 638              		.file 2 "c:\\program files (x86)\\cypress\\psoc creator\\4.2\\psoc creator\\import\\gnu\\arm\\5.4.
 639              		.file 3 "c:\\program files (x86)\\cypress\\psoc creator\\4.2\\psoc creator\\import\\gnu\\arm\\5.4.
 640              		.file 4 "Generated_Source\\PSoC5/isr_uart_rx.h"
 641              		.file 5 "Generated_Source\\PSoC5/UART_1.h"
 642              		.file 6 "Generated_Source\\PSoC5/PWM_1.h"
 643              		.file 7 "Generated_Source\\PSoC5/Pin_EN.h"
 644              		.file 8 "Generated_Source\\PSoC5/Pin_LN1.h"
 645              		.file 9 "Generated_Source\\PSoC5/Pin_LN2.h"
 646              		.file 10 "Generated_Source\\PSoC5/Pin_EN2.h"
 647              		.file 11 "Generated_Source\\PSoC5/Pin_LN3.h"
 648              		.file 12 "Generated_Source\\PSoC5/Pin_LN4.h"
 649              		.file 13 "Generated_Source\\PSoC5/core_cm3.h"