ARM GAS  C:\Users\marti\AppData\Local\Temp\ccBXmXkj.s 			page 1


   1              		.syntax unified
   2              		.cpu cortex-m3
   3              		.fpu softvfp
   4              		.eabi_attribute 20, 1
   5              		.eabi_attribute 21, 1
   6              		.eabi_attribute 23, 3
   7              		.eabi_attribute 24, 1
   8              		.eabi_attribute 25, 1
   9              		.eabi_attribute 26, 1
  10              		.eabi_attribute 30, 1
  11              		.eabi_attribute 34, 1
  12              		.eabi_attribute 18, 4
  13              		.thumb
  14              		.syntax unified
  15              		.file	"main.c"
  16              		.text
  17              	.Ltext0:
  18              		.cfi_sections	.debug_frame
  19              		.section	.text.ISR_UART_rx_handler,"ax",%progbits
  20              		.align	2
  21              		.global	ISR_UART_rx_handler
  22              		.thumb
  23              		.thumb_func
  24              		.type	ISR_UART_rx_handler, %function
  25              	ISR_UART_rx_handler:
  26              	.LFB65:
  27              		.file 1 "main.c"
   1:main.c        **** /* ========================================
   2:main.c        ****  *
   3:main.c        ****  * Copyright YOUR COMPANY, THE YEAR
   4:main.c        ****  * All Rights Reserved
   5:main.c        ****  * UNPUBLISHED, LICENSED SOFTWARE.
   6:main.c        ****  *
   7:main.c        ****  * CONFIDENTIAL AND PROPRIETARY INFORMATION
   8:main.c        ****  * WHICH IS THE PROPERTY OF your company.
   9:main.c        ****  *
  10:main.c        ****  * ========================================
  11:main.c        **** */
  12:main.c        **** #include "project.h"
  13:main.c        **** #include <stdio.h>
  14:main.c        **** 
  15:main.c        **** CY_ISR_PROTO(ISR_UART_rx_handler);
  16:main.c        **** void handleByteReceived(uint8_t byteReceived);
  17:main.c        **** 
  18:main.c        **** int main(void)
  19:main.c        **** {
  20:main.c        ****     CyGlobalIntEnable; /* Enable global interrupts. */
  21:main.c        ****     char uartBuffer[256];
  22:main.c        **** 
  23:main.c        ****     /* Place your initialization/startup code here (e.g. MyInst_Start()) */
  24:main.c        ****     isr_uart_rx_StartEx(ISR_UART_rx_handler);
  25:main.c        ****     UART_1_Start();
  26:main.c        ****     ADC_SAR_1_Start();
  27:main.c        ****     ADC_SAR_1_StartConvert();
  28:main.c        ****      
  29:main.c        ****     UART_1_PutString("Scale application started\r\n");
  30:main.c        ****     UART_1_PutString("2003.408316 g\r\n2006.073561 g\r\n2006.073561 g\r\n2003.408316 g\r\n2006.0735
ARM GAS  C:\Users\marti\AppData\Local\Temp\ccBXmXkj.s 			page 2


  31:main.c        ****     for(;;)
  32:main.c        ****     {
  33:main.c        ****         /* Place your application code here. */
  34:main.c        ****         /*if (ADC_SAR_1_IsEndConversion(ADC_SAR_1_WAIT_FOR_RESULT))
  35:main.c        ****         {
  36:main.c        ****             int result = ADC_SAR_1_GetResult16();
  37:main.c        ****             //snprintf(uartBuffer, sizeof(uartBuffer), "%d \r\n", result);
  38:main.c        ****             double gram = (result-2152.6788)/(-0.3752);
  39:main.c        ****             if(gram<0) {gram=0;}
  40:main.c        ****             snprintf(uartBuffer, sizeof(uartBuffer), "%lf g \r\n", gram);
  41:main.c        ****             UART_1_PutString(uartBuffer);
  42:main.c        ****         }
  43:main.c        ****         CyDelay(100);*/
  44:main.c        ****     }
  45:main.c        **** }
  46:main.c        **** 
  47:main.c        **** CY_ISR(ISR_UART_rx_handler)
  48:main.c        **** {
  28              		.loc 1 48 0
  29              		.cfi_startproc
  30              		@ args = 0, pretend = 0, frame = 0
  31              		@ frame_needed = 0, uses_anonymous_args = 0
  32 0000 10B5     		push	{r4, lr}
  33              		.cfi_def_cfa_offset 8
  34              		.cfi_offset 4, -8
  35              		.cfi_offset 14, -4
  49:main.c        ****     uint8_t bytesToRead = UART_1_GetRxBufferSize();
  36              		.loc 1 49 0
  37 0002 FFF7FEFF 		bl	UART_1_GetRxBufferSize
  38              	.LVL0:
  39 0006 0446     		mov	r4, r0
  40              	.LVL1:
  50:main.c        ****     while (bytesToRead > 0)
  41              		.loc 1 50 0
  42 0008 05E0     		b	.L2
  43              	.L3:
  44              	.LBB2:
  51:main.c        ****     {
  52:main.c        ****         uint8_t byteReceived = UART_1_ReadRxData();
  45              		.loc 1 52 0
  46 000a FFF7FEFF 		bl	UART_1_ReadRxData
  47              	.LVL2:
  53:main.c        ****         UART_1_WriteTxData(byteReceived); // echo back
  48              		.loc 1 53 0
  49 000e FFF7FEFF 		bl	UART_1_WriteTxData
  50              	.LVL3:
  54:main.c        ****         
  55:main.c        ****         handleByteReceived(byteReceived);
  56:main.c        ****         
  57:main.c        ****         bytesToRead--;
  51              		.loc 1 57 0
  52 0012 013C     		subs	r4, r4, #1
  53              	.LVL4:
  54 0014 E4B2     		uxtb	r4, r4
  55              	.LVL5:
  56              	.L2:
  57              	.LBE2:
ARM GAS  C:\Users\marti\AppData\Local\Temp\ccBXmXkj.s 			page 3


  50:main.c        ****     {
  58              		.loc 1 50 0
  59 0016 002C     		cmp	r4, #0
  60 0018 F7D1     		bne	.L3
  58:main.c        ****     }
  59:main.c        **** }
  61              		.loc 1 59 0
  62 001a 10BD     		pop	{r4, pc}
  63              		.cfi_endproc
  64              	.LFE65:
  65              		.size	ISR_UART_rx_handler, .-ISR_UART_rx_handler
  66              		.section	.text.main,"ax",%progbits
  67              		.align	2
  68              		.global	main
  69              		.thumb
  70              		.thumb_func
  71              		.type	main, %function
  72              	main:
  73              	.LFB64:
  19:main.c        ****     CyGlobalIntEnable; /* Enable global interrupts. */
  74              		.loc 1 19 0
  75              		.cfi_startproc
  76              		@ Volatile: function does not return.
  77              		@ args = 0, pretend = 0, frame = 0
  78              		@ frame_needed = 0, uses_anonymous_args = 0
  79 0000 08B5     		push	{r3, lr}
  80              		.cfi_def_cfa_offset 8
  81              		.cfi_offset 3, -8
  82              		.cfi_offset 14, -4
  20:main.c        ****     char uartBuffer[256];
  83              		.loc 1 20 0
  84              		.syntax unified
  85              	@ 20 "main.c" 1
  86 0002 62B6     		CPSIE   i
  87              	@ 0 "" 2
  24:main.c        ****     UART_1_Start();
  88              		.loc 1 24 0
  89              		.thumb
  90              		.syntax unified
  91 0004 0748     		ldr	r0, .L8
  92 0006 FFF7FEFF 		bl	isr_uart_rx_StartEx
  93              	.LVL6:
  25:main.c        ****     ADC_SAR_1_Start();
  94              		.loc 1 25 0
  95 000a FFF7FEFF 		bl	UART_1_Start
  96              	.LVL7:
  26:main.c        ****     ADC_SAR_1_StartConvert();
  97              		.loc 1 26 0
  98 000e FFF7FEFF 		bl	ADC_SAR_1_Start
  99              	.LVL8:
  27:main.c        ****      
 100              		.loc 1 27 0
 101 0012 FFF7FEFF 		bl	ADC_SAR_1_StartConvert
 102              	.LVL9:
  29:main.c        ****     UART_1_PutString("2003.408316 g\r\n2006.073561 g\r\n2006.073561 g\r\n2003.408316 g\r\n2006.0735
 103              		.loc 1 29 0
 104 0016 0448     		ldr	r0, .L8+4
ARM GAS  C:\Users\marti\AppData\Local\Temp\ccBXmXkj.s 			page 4


 105 0018 FFF7FEFF 		bl	UART_1_PutString
 106              	.LVL10:
  30:main.c        ****     for(;;)
 107              		.loc 1 30 0
 108 001c 0348     		ldr	r0, .L8+8
 109 001e FFF7FEFF 		bl	UART_1_PutString
 110              	.LVL11:
 111              	.L6:
 112 0022 FEE7     		b	.L6
 113              	.L9:
 114              		.align	2
 115              	.L8:
 116 0024 00000000 		.word	ISR_UART_rx_handler
 117 0028 00000000 		.word	.LC0
 118 002c 1C000000 		.word	.LC1
 119              		.cfi_endproc
 120              	.LFE64:
 121              		.size	main, .-main
 122              		.section	.text.handleByteReceived,"ax",%progbits
 123              		.align	2
 124              		.global	handleByteReceived
 125              		.thumb
 126              		.thumb_func
 127              		.type	handleByteReceived, %function
 128              	handleByteReceived:
 129              	.LFB66:
  60:main.c        **** 
  61:main.c        **** void handleByteReceived(uint8_t byteReceived)
  62:main.c        **** {
 130              		.loc 1 62 0
 131              		.cfi_startproc
 132              		@ args = 0, pretend = 0, frame = 0
 133              		@ frame_needed = 0, uses_anonymous_args = 0
 134              		@ link register save eliminated.
 135              	.LVL12:
 136 0000 7047     		bx	lr
 137              		.cfi_endproc
 138              	.LFE66:
 139              		.size	handleByteReceived, .-handleByteReceived
 140 0002 00BF     		.section	.rodata.str1.4,"aMS",%progbits,1
 141              		.align	2
 142              	.LC0:
 143 0000 5363616C 		.ascii	"Scale application started\015\012\000"
 143      65206170 
 143      706C6963 
 143      6174696F 
 143      6E207374 
 144              	.LC1:
 145 001c 32303033 		.ascii	"2003.408316 g\015\0122006.073561 g\015\0122006.0735"
 145      2E343038 
 145      33313620 
 145      670D0A32 
 145      3030362E 
 146 0043 36312067 		.ascii	"61 g\015\0122003.408316 g\015\0122006.073561 g\015\012"
 146      0D0A3230 
 146      30332E34 
 146      30383331 
ARM GAS  C:\Users\marti\AppData\Local\Temp\ccBXmXkj.s 			page 5


 146      3620670D 
 147 0067 32303033 		.ascii	"2003.408316 g\015\0122000.743070 g\015\0122006.0735"
 147      2E343038 
 147      33313620 
 147      670D0A32 
 147      3030302E 
 148 008e 36312067 		.ascii	"61 g\015\0122006.073561 g\015\0122008.738806 g\015\012"
 148      0D0A3230 
 148      30362E30 
 148      37333536 
 148      3120670D 
 149 00b2 32303033 		.ascii	"2003.408316 g\015\0122006.073561 g\015\0122006.0735"
 149      2E343038 
 149      33313620 
 149      670D0A32 
 149      3030362E 
 150 00d9 36312067 		.ascii	"61 g\015\0122006.073561 g\015\0122006.073561 g\015\012"
 150      0D0A3230 
 150      30362E30 
 150      37333536 
 150      3120670D 
 151 00fd 00       		.ascii	"\000"
 152              		.text
 153              	.Letext0:
 154              		.file 2 "c:\\program files (x86)\\cypress\\psoc creator\\4.2\\psoc creator\\import\\gnu\\arm\\5.4.
 155              		.file 3 "c:\\program files (x86)\\cypress\\psoc creator\\4.2\\psoc creator\\import\\gnu\\arm\\5.4.
 156              		.file 4 "Generated_Source\\PSoC5/UART_1.h"
 157              		.file 5 "Generated_Source\\PSoC5/isr_uart_rx.h"
 158              		.file 6 "Generated_Source\\PSoC5/ADC_SAR_1.h"
 159              		.file 7 "Generated_Source\\PSoC5/core_cm3.h"