ARM GAS  C:\Users\marti\AppData\Local\Temp\ccSjfyJc.s 			page 1


   1              		.syntax unified
   2              		.cpu cortex-m3
   3              		.fpu softvfp
   4              		.eabi_attribute 20, 1
   5              		.eabi_attribute 21, 1
   6              		.eabi_attribute 23, 3
   7              		.eabi_attribute 24, 1
   8              		.eabi_attribute 25, 1
   9              		.eabi_attribute 26, 1
  10              		.eabi_attribute 30, 1
  11              		.eabi_attribute 34, 1
  12              		.eabi_attribute 18, 4
  13              		.thumb
  14              		.syntax unified
  15              		.file	"main.c"
  16              		.text
  17              	.Ltext0:
  18              		.cfi_sections	.debug_frame
  19              		.section	.text.isr_timer_handler,"ax",%progbits
  20              		.align	2
  21              		.global	isr_timer_handler
  22              		.thumb
  23              		.thumb_func
  24              		.type	isr_timer_handler, %function
  25              	isr_timer_handler:
  26              	.LFB64:
  27              		.file 1 "main.c"
   1:main.c        **** /* ========================================
   2:main.c        ****  *
   3:main.c        ****  * Copyright YOUR COMPANY, THE YEAR
   4:main.c        ****  * All Rights Reserved
   5:main.c        ****  * UNPUBLISHED, LICENSED SOFTWARE.
   6:main.c        ****  *
   7:main.c        ****  * CONFIDENTIAL AND PROPRIETARY INFORMATION
   8:main.c        ****  * WHICH IS THE PROPERTY OF your company.
   9:main.c        ****  *
  10:main.c        ****  * ========================================
  11:main.c        **** */
  12:main.c        **** #include "project.h"
  13:main.c        **** 
  14:main.c        **** CY_ISR_PROTO(ISR_UART_rx_handler);
  15:main.c        **** CY_ISR_PROTO(isr_timer_handler);
  16:main.c        **** void handleByteReceived(uint8_t byteReceived);
  17:main.c        **** void decreaseSpeed(void);
  18:main.c        **** void increaseSpeed(void);
  19:main.c        **** void driveForwards(void);
  20:main.c        **** void driveBackwards(void);
  21:main.c        **** void oneRotation();
  22:main.c        **** void stop(void);
  23:main.c        **** static int speed = 1;
  24:main.c        **** static int state = 0;
  25:main.c        **** void wave(void);
  26:main.c        **** void fullstep(void);
  27:main.c        **** void halfstep(void);
  28:main.c        **** void change(void);
  29:main.c        **** typedef enum
  30:main.c        **** {
ARM GAS  C:\Users\marti\AppData\Local\Temp\ccSjfyJc.s 			page 2


  31:main.c        ****     _0grader,
  32:main.c        **** 	_45grader,
  33:main.c        ****     _90grader,
  34:main.c        ****     _135grader,
  35:main.c        ****     _180grader,
  36:main.c        ****     _225grader,
  37:main.c        ****     _270grader,
  38:main.c        ****     _315grader
  39:main.c        **** } POSITION;
  40:main.c        **** 
  41:main.c        **** typedef enum
  42:main.c        **** {
  43:main.c        **** 	FORWARD,
  44:main.c        **** 	BACKWARD
  45:main.c        **** } DIRECTION;
  46:main.c        **** 
  47:main.c        **** typedef enum
  48:main.c        **** {
  49:main.c        **** 	WAVE,
  50:main.c        **** 	FULL,
  51:main.c        ****     HALF
  52:main.c        **** } MODE;
  53:main.c        **** 
  54:main.c        **** static int counter = 0;
  55:main.c        **** static POSITION position = _0grader;
  56:main.c        **** static DIRECTION direction = FORWARD;
  57:main.c        **** static MODE mode = WAVE;
  58:main.c        **** static int turnOn = 1;
  59:main.c        **** static int rotate = 0;
  60:main.c        **** 
  61:main.c        **** int main(void)
  62:main.c        **** {
  63:main.c        ****     CyGlobalIntEnable; /* Enable global interrupts. */
  64:main.c        **** 
  65:main.c        ****     /* Place your initialization/startup code here (e.g. MyInst_Start()) */
  66:main.c        ****     isr_uart_rx_StartEx(ISR_UART_rx_handler);
  67:main.c        ****     isr_timer_StartEx(isr_timer_handler);
  68:main.c        ****     
  69:main.c        ****     UART_1_Start();
  70:main.c        ****     PWM_1_Start();
  71:main.c        ****     Timer_1_Start();
  72:main.c        ****     
  73:main.c        ****     
  74:main.c        ****     UART_1_PutString("DC-Motor-PWM application started\r\n");
  75:main.c        ****     UART_1_PutString("0: Stop\r\n");
  76:main.c        ****     UART_1_PutString("1: Drive forwards\r\n");
  77:main.c        ****     UART_1_PutString("2: Drive backwards\r\n");
  78:main.c        ****     UART_1_PutString("q: Decrease speed\r\n");
  79:main.c        ****     UART_1_PutString("w: Increase speed\r\n");
  80:main.c        ****     
  81:main.c        ****     UART_1_PutString("6: Wave\r\n");
  82:main.c        ****     UART_1_PutString("7: fullstep\r\n");
  83:main.c        ****     UART_1_PutString("8: halfstep\r\n");
  84:main.c        ****     
  85:main.c        ****     UART_1_PutString("r: Rotate once\r\n");
  86:main.c        **** 
  87:main.c        ****     for(;;)
ARM GAS  C:\Users\marti\AppData\Local\Temp\ccSjfyJc.s 			page 3


  88:main.c        ****     {
  89:main.c        ****         if(rotate) {
  90:main.c        ****          counter++;
  91:main.c        ****          if(counter>2000) {
  92:main.c        ****         turnOn=0;
  93:main.c        ****         }
  94:main.c        ****         }
  95:main.c        ****         if(turnOn) {
  96:main.c        ****         
  97:main.c        ****         switch (mode) {
  98:main.c        ****         case WAVE:
  99:main.c        ****         {
 100:main.c        ****             
 101:main.c        ****             switch(direction) {
 102:main.c        ****              case FORWARD:
 103:main.c        ****                 {
 104:main.c        ****                     state++;
 105:main.c        ****                     if(state>=4) {
 106:main.c        ****                     state=0;
 107:main.c        ****                     }
 108:main.c        ****                 }
 109:main.c        ****             break;
 110:main.c        ****              case BACKWARD:
 111:main.c        ****                 {
 112:main.c        ****                     state--;
 113:main.c        ****                     if(state<0) {
 114:main.c        ****                     state=3;
 115:main.c        ****                     }
 116:main.c        ****                 }
 117:main.c        ****             break;
 118:main.c        ****              default:
 119:main.c        ****                 {
 120:main.c        ****                     //nothing
 121:main.c        ****                 }
 122:main.c        ****             break;
 123:main.c        ****                 
 124:main.c        ****             }
 125:main.c        ****             
 126:main.c        ****             
 127:main.c        ****             
 128:main.c        ****             change();
 129:main.c        ****             CyDelay(speed);
 130:main.c        ****         }
 131:main.c        ****         break;
 132:main.c        ****         
 133:main.c        ****         case FULL:
 134:main.c        ****         {
 135:main.c        ****             switch(direction) {
 136:main.c        ****              case FORWARD:
 137:main.c        ****                 {
 138:main.c        ****                     state++;
 139:main.c        ****                     
 140:main.c        ****                     if(state>=4) {
 141:main.c        ****                     state=0;
 142:main.c        ****                     }
 143:main.c        ****                 }
 144:main.c        ****             break;
ARM GAS  C:\Users\marti\AppData\Local\Temp\ccSjfyJc.s 			page 4


 145:main.c        ****              case BACKWARD:
 146:main.c        ****                 {
 147:main.c        ****                     state--;
 148:main.c        ****                     if(state<0) {
 149:main.c        ****                     state=3;
 150:main.c        ****                     }
 151:main.c        ****                 }
 152:main.c        ****             break;
 153:main.c        ****              default:
 154:main.c        ****                 {
 155:main.c        ****                     //nothing
 156:main.c        ****                 }
 157:main.c        ****             break;
 158:main.c        ****                 
 159:main.c        ****             }
 160:main.c        ****            
 161:main.c        ****             change();
 162:main.c        ****             CyDelay(speed);
 163:main.c        ****         }
 164:main.c        ****         break;
 165:main.c        ****         
 166:main.c        ****         case HALF:
 167:main.c        ****         {
 168:main.c        ****             switch(direction) {
 169:main.c        ****              case FORWARD:
 170:main.c        ****                 {
 171:main.c        ****                     state++;
 172:main.c        ****                     
 173:main.c        ****                     if(state>=8) {
 174:main.c        ****                     state=0;
 175:main.c        ****                     }
 176:main.c        ****                 }
 177:main.c        ****             break;
 178:main.c        ****              case BACKWARD:
 179:main.c        ****                 {
 180:main.c        ****                     state--;
 181:main.c        ****                     if(state<0) {
 182:main.c        ****                     state=7;
 183:main.c        ****                     }
 184:main.c        ****                 }
 185:main.c        ****             break;
 186:main.c        ****              default:
 187:main.c        ****                 {
 188:main.c        ****                     //nothing
 189:main.c        ****                 }
 190:main.c        ****             break;
 191:main.c        ****                 
 192:main.c        ****             }
 193:main.c        ****             
 194:main.c        ****             change();
 195:main.c        ****         }
 196:main.c        ****         break;
 197:main.c        ****         
 198:main.c        ****         default:
 199:main.c        ****         {
 200:main.c        ****             //nothing
 201:main.c        ****         }
ARM GAS  C:\Users\marti\AppData\Local\Temp\ccSjfyJc.s 			page 5


 202:main.c        ****         break;
 203:main.c        ****     }
 204:main.c        ****     //if(state>=8) {
 205:main.c        ****     //state=0;
 206:main.c        ****     //}
 207:main.c        ****         
 208:main.c        ****         CyDelay(speed);
 209:main.c        ****         /* Place your application code here. */
 210:main.c        ****         }
 211:main.c        ****     }
 212:main.c        **** }
 213:main.c        **** 
 214:main.c        **** CY_ISR(isr_timer_handler) {
  28              		.loc 1 214 0
  29              		.cfi_startproc
  30              		@ args = 0, pretend = 0, frame = 0
  31              		@ frame_needed = 0, uses_anonymous_args = 0
  32              		@ link register save eliminated.
  33 0000 7047     		bx	lr
  34              		.cfi_endproc
  35              	.LFE64:
  36              		.size	isr_timer_handler, .-isr_timer_handler
  37 0002 00BF     		.section	.text.change,"ax",%progbits
  38              		.align	2
  39              		.global	change
  40              		.thumb
  41              		.thumb_func
  42              		.type	change, %function
  43              	change:
  44              	.LFB67:
 215:main.c        ****     
 216:main.c        ****     
 217:main.c        ****    
 218:main.c        **** }
 219:main.c        **** 
 220:main.c        **** CY_ISR(ISR_UART_rx_handler)
 221:main.c        **** {
 222:main.c        ****     uint8_t bytesToRead = UART_1_GetRxBufferSize();
 223:main.c        ****     while (bytesToRead > 0)
 224:main.c        ****     {
 225:main.c        ****         uint8_t byteReceived = UART_1_ReadRxData();
 226:main.c        ****         UART_1_WriteTxData(byteReceived); // echo back
 227:main.c        ****         
 228:main.c        ****         handleByteReceived(byteReceived);
 229:main.c        ****         
 230:main.c        ****         bytesToRead--;
 231:main.c        ****     }
 232:main.c        **** }
 233:main.c        **** 
 234:main.c        **** void handleByteReceived(uint8_t byteReceived)
 235:main.c        **** {
 236:main.c        ****     switch(byteReceived)
 237:main.c        ****     {
 238:main.c        ****         case 'q' :
 239:main.c        ****         {
 240:main.c        ****             decreaseSpeed();
 241:main.c        ****         }
ARM GAS  C:\Users\marti\AppData\Local\Temp\ccSjfyJc.s 			page 6


 242:main.c        ****         break;
 243:main.c        ****         case 'w' :
 244:main.c        ****         {
 245:main.c        ****             increaseSpeed();
 246:main.c        ****         }
 247:main.c        ****         break;
 248:main.c        ****         case '1' :
 249:main.c        ****         {
 250:main.c        ****             driveForwards();
 251:main.c        ****         }
 252:main.c        ****         break;
 253:main.c        ****         case '2' :
 254:main.c        ****         {
 255:main.c        ****             driveBackwards();
 256:main.c        ****         }
 257:main.c        ****         break;
 258:main.c        ****         case '0' :
 259:main.c        ****         {
 260:main.c        ****             stop();
 261:main.c        ****             
 262:main.c        ****         }
 263:main.c        ****         break;
 264:main.c        ****         
 265:main.c        ****         case '6' :
 266:main.c        ****         {
 267:main.c        ****             wave();
 268:main.c        ****             
 269:main.c        ****         }
 270:main.c        ****         break;
 271:main.c        ****         
 272:main.c        ****         case '7' :
 273:main.c        ****         {
 274:main.c        ****             fullstep();
 275:main.c        ****             
 276:main.c        ****         }
 277:main.c        ****         break;
 278:main.c        ****         
 279:main.c        ****         case '8' :
 280:main.c        ****         {
 281:main.c        ****             halfstep();
 282:main.c        ****             
 283:main.c        ****         }
 284:main.c        ****         case 'r' :
 285:main.c        ****         {
 286:main.c        ****             oneRotation();
 287:main.c        ****             
 288:main.c        ****         }
 289:main.c        ****         break;
 290:main.c        ****         default :
 291:main.c        ****         {
 292:main.c        ****             // nothing
 293:main.c        ****         }
 294:main.c        ****         break;
 295:main.c        ****     }
 296:main.c        **** }
 297:main.c        **** 
 298:main.c        **** void change(void) {
ARM GAS  C:\Users\marti\AppData\Local\Temp\ccSjfyJc.s 			page 7


  45              		.loc 1 298 0
  46              		.cfi_startproc
  47              		@ args = 0, pretend = 0, frame = 0
  48              		@ frame_needed = 0, uses_anonymous_args = 0
  49              		.loc 1 298 0
  50 0000 08B5     		push	{r3, lr}
  51              		.cfi_def_cfa_offset 8
  52              		.cfi_offset 3, -8
  53              		.cfi_offset 14, -4
 299:main.c        ****     if(mode==HALF) {
  54              		.loc 1 299 0
  55 0002 7A4B     		ldr	r3, .L26
  56 0004 1B78     		ldrb	r3, [r3]	@ zero_extendqisi2
  57 0006 022B     		cmp	r3, #2
  58 0008 70D1     		bne	.L3
 300:main.c        ****     switch(state) {
  59              		.loc 1 300 0
  60 000a 784B     		ldr	r3, .L26
  61 000c 5B68     		ldr	r3, [r3, #4]
  62 000e 072B     		cmp	r3, #7
  63 0010 6CD8     		bhi	.L3
  64 0012 DFE803F0 		tbb	[pc, r3]
  65              	.L5:
  66 0016 04       		.byte	(.L4-.L5)/2
  67 0017 11       		.byte	(.L6-.L5)/2
  68 0018 1E       		.byte	(.L7-.L5)/2
  69 0019 2B       		.byte	(.L8-.L5)/2
  70 001a 38       		.byte	(.L9-.L5)/2
  71 001b 45       		.byte	(.L10-.L5)/2
  72 001c 52       		.byte	(.L11-.L5)/2
  73 001d 5F       		.byte	(.L12-.L5)/2
  74              		.p2align 1
  75              	.L4:
 301:main.c        ****       case 0:
 302:main.c        ****         {
 303:main.c        ****             Pin_1A_Write(1);
  76              		.loc 1 303 0
  77 001e 0120     		movs	r0, #1
  78 0020 FFF7FEFF 		bl	Pin_1A_Write
  79              	.LVL0:
 304:main.c        ****             Pin_2A_Write(0);
  80              		.loc 1 304 0
  81 0024 0020     		movs	r0, #0
  82 0026 FFF7FEFF 		bl	Pin_2A_Write
  83              	.LVL1:
 305:main.c        ****             Pin_1B_Write(0);
  84              		.loc 1 305 0
  85 002a 0020     		movs	r0, #0
  86 002c FFF7FEFF 		bl	Pin_1B_Write
  87              	.LVL2:
 306:main.c        ****             Pin_2B_Write(0);
  88              		.loc 1 306 0
  89 0030 0020     		movs	r0, #0
  90 0032 FFF7FEFF 		bl	Pin_2B_Write
  91              	.LVL3:
 307:main.c        ****         }
 308:main.c        ****         break;
ARM GAS  C:\Users\marti\AppData\Local\Temp\ccSjfyJc.s 			page 8


  92              		.loc 1 308 0
  93 0036 59E0     		b	.L3
  94              	.L6:
 309:main.c        ****       case 1:
 310:main.c        ****         {
 311:main.c        ****             Pin_1A_Write(1);
  95              		.loc 1 311 0
  96 0038 0120     		movs	r0, #1
  97 003a FFF7FEFF 		bl	Pin_1A_Write
  98              	.LVL4:
 312:main.c        ****             Pin_2A_Write(1);
  99              		.loc 1 312 0
 100 003e 0120     		movs	r0, #1
 101 0040 FFF7FEFF 		bl	Pin_2A_Write
 102              	.LVL5:
 313:main.c        ****             Pin_1B_Write(0);
 103              		.loc 1 313 0
 104 0044 0020     		movs	r0, #0
 105 0046 FFF7FEFF 		bl	Pin_1B_Write
 106              	.LVL6:
 314:main.c        ****             Pin_2B_Write(0);
 107              		.loc 1 314 0
 108 004a 0020     		movs	r0, #0
 109 004c FFF7FEFF 		bl	Pin_2B_Write
 110              	.LVL7:
 315:main.c        ****         }
 316:main.c        ****       break;
 111              		.loc 1 316 0
 112 0050 4CE0     		b	.L3
 113              	.L7:
 317:main.c        ****       case 2:
 318:main.c        ****         {
 319:main.c        ****             Pin_1A_Write(0);
 114              		.loc 1 319 0
 115 0052 0020     		movs	r0, #0
 116 0054 FFF7FEFF 		bl	Pin_1A_Write
 117              	.LVL8:
 320:main.c        ****             Pin_2A_Write(1);
 118              		.loc 1 320 0
 119 0058 0120     		movs	r0, #1
 120 005a FFF7FEFF 		bl	Pin_2A_Write
 121              	.LVL9:
 321:main.c        ****             Pin_1B_Write(0);
 122              		.loc 1 321 0
 123 005e 0020     		movs	r0, #0
 124 0060 FFF7FEFF 		bl	Pin_1B_Write
 125              	.LVL10:
 322:main.c        ****             Pin_2B_Write(0);
 126              		.loc 1 322 0
 127 0064 0020     		movs	r0, #0
 128 0066 FFF7FEFF 		bl	Pin_2B_Write
 129              	.LVL11:
 323:main.c        ****         }
 324:main.c        ****         break;
 130              		.loc 1 324 0
 131 006a 3FE0     		b	.L3
 132              	.L8:
ARM GAS  C:\Users\marti\AppData\Local\Temp\ccSjfyJc.s 			page 9


 325:main.c        ****       case 3:
 326:main.c        ****         {
 327:main.c        ****             Pin_1A_Write(0);
 133              		.loc 1 327 0
 134 006c 0020     		movs	r0, #0
 135 006e FFF7FEFF 		bl	Pin_1A_Write
 136              	.LVL12:
 328:main.c        ****             Pin_2A_Write(1);
 137              		.loc 1 328 0
 138 0072 0120     		movs	r0, #1
 139 0074 FFF7FEFF 		bl	Pin_2A_Write
 140              	.LVL13:
 329:main.c        ****             Pin_1B_Write(1);
 141              		.loc 1 329 0
 142 0078 0120     		movs	r0, #1
 143 007a FFF7FEFF 		bl	Pin_1B_Write
 144              	.LVL14:
 330:main.c        ****             Pin_2B_Write(0);
 145              		.loc 1 330 0
 146 007e 0020     		movs	r0, #0
 147 0080 FFF7FEFF 		bl	Pin_2B_Write
 148              	.LVL15:
 331:main.c        ****         }
 332:main.c        ****         break;
 149              		.loc 1 332 0
 150 0084 32E0     		b	.L3
 151              	.L9:
 333:main.c        ****       case 4:
 334:main.c        ****         {
 335:main.c        ****             Pin_1A_Write(0);
 152              		.loc 1 335 0
 153 0086 0020     		movs	r0, #0
 154 0088 FFF7FEFF 		bl	Pin_1A_Write
 155              	.LVL16:
 336:main.c        ****             Pin_2A_Write(0);
 156              		.loc 1 336 0
 157 008c 0020     		movs	r0, #0
 158 008e FFF7FEFF 		bl	Pin_2A_Write
 159              	.LVL17:
 337:main.c        ****             Pin_1B_Write(1);
 160              		.loc 1 337 0
 161 0092 0120     		movs	r0, #1
 162 0094 FFF7FEFF 		bl	Pin_1B_Write
 163              	.LVL18:
 338:main.c        ****             Pin_2B_Write(0);
 164              		.loc 1 338 0
 165 0098 0020     		movs	r0, #0
 166 009a FFF7FEFF 		bl	Pin_2B_Write
 167              	.LVL19:
 339:main.c        ****         }
 340:main.c        ****         break;
 168              		.loc 1 340 0
 169 009e 25E0     		b	.L3
 170              	.L10:
 341:main.c        ****       case 5:
 342:main.c        ****         {
 343:main.c        ****             Pin_1A_Write(0);
ARM GAS  C:\Users\marti\AppData\Local\Temp\ccSjfyJc.s 			page 10


 171              		.loc 1 343 0
 172 00a0 0020     		movs	r0, #0
 173 00a2 FFF7FEFF 		bl	Pin_1A_Write
 174              	.LVL20:
 344:main.c        ****             Pin_2A_Write(0);
 175              		.loc 1 344 0
 176 00a6 0020     		movs	r0, #0
 177 00a8 FFF7FEFF 		bl	Pin_2A_Write
 178              	.LVL21:
 345:main.c        ****             Pin_1B_Write(1);
 179              		.loc 1 345 0
 180 00ac 0120     		movs	r0, #1
 181 00ae FFF7FEFF 		bl	Pin_1B_Write
 182              	.LVL22:
 346:main.c        ****             Pin_2B_Write(1);
 183              		.loc 1 346 0
 184 00b2 0120     		movs	r0, #1
 185 00b4 FFF7FEFF 		bl	Pin_2B_Write
 186              	.LVL23:
 347:main.c        ****         }
 348:main.c        ****         break;
 187              		.loc 1 348 0
 188 00b8 18E0     		b	.L3
 189              	.L11:
 349:main.c        ****       case 6:
 350:main.c        ****         {
 351:main.c        ****             Pin_1A_Write(0);
 190              		.loc 1 351 0
 191 00ba 0020     		movs	r0, #0
 192 00bc FFF7FEFF 		bl	Pin_1A_Write
 193              	.LVL24:
 352:main.c        ****             Pin_2A_Write(0);
 194              		.loc 1 352 0
 195 00c0 0020     		movs	r0, #0
 196 00c2 FFF7FEFF 		bl	Pin_2A_Write
 197              	.LVL25:
 353:main.c        ****             Pin_1B_Write(0);
 198              		.loc 1 353 0
 199 00c6 0020     		movs	r0, #0
 200 00c8 FFF7FEFF 		bl	Pin_1B_Write
 201              	.LVL26:
 354:main.c        ****             Pin_2B_Write(1);
 202              		.loc 1 354 0
 203 00cc 0120     		movs	r0, #1
 204 00ce FFF7FEFF 		bl	Pin_2B_Write
 205              	.LVL27:
 355:main.c        ****         }
 356:main.c        ****         break;
 206              		.loc 1 356 0
 207 00d2 0BE0     		b	.L3
 208              	.L12:
 357:main.c        ****       case 7:
 358:main.c        ****         {
 359:main.c        ****             Pin_1A_Write(1);
 209              		.loc 1 359 0
 210 00d4 0120     		movs	r0, #1
 211 00d6 FFF7FEFF 		bl	Pin_1A_Write
ARM GAS  C:\Users\marti\AppData\Local\Temp\ccSjfyJc.s 			page 11


 212              	.LVL28:
 360:main.c        ****             Pin_2A_Write(0);
 213              		.loc 1 360 0
 214 00da 0020     		movs	r0, #0
 215 00dc FFF7FEFF 		bl	Pin_2A_Write
 216              	.LVL29:
 361:main.c        ****             Pin_1B_Write(0);
 217              		.loc 1 361 0
 218 00e0 0020     		movs	r0, #0
 219 00e2 FFF7FEFF 		bl	Pin_1B_Write
 220              	.LVL30:
 362:main.c        ****             Pin_2B_Write(1);
 221              		.loc 1 362 0
 222 00e6 0120     		movs	r0, #1
 223 00e8 FFF7FEFF 		bl	Pin_2B_Write
 224              	.LVL31:
 225              	.L3:
 363:main.c        ****         }
 364:main.c        ****         break;
 365:main.c        ****       default:
 366:main.c        ****         {
 367:main.c        ****             //nothing
 368:main.c        ****         }
 369:main.c        ****         break;
 370:main.c        ****         
 371:main.c        ****     }
 372:main.c        ****     }
 373:main.c        ****     
 374:main.c        ****     if(mode==WAVE) {
 226              		.loc 1 374 0
 227 00ec 3F4B     		ldr	r3, .L26
 228 00ee 1B78     		ldrb	r3, [r3]	@ zero_extendqisi2
 229 00f0 002B     		cmp	r3, #0
 230 00f2 3AD1     		bne	.L13
 375:main.c        ****     switch(state) {
 231              		.loc 1 375 0
 232 00f4 3D4B     		ldr	r3, .L26
 233 00f6 5B68     		ldr	r3, [r3, #4]
 234 00f8 032B     		cmp	r3, #3
 235 00fa 36D8     		bhi	.L13
 236 00fc DFE803F0 		tbb	[pc, r3]
 237              	.L15:
 238 0100 02       		.byte	(.L14-.L15)/2
 239 0101 0F       		.byte	(.L16-.L15)/2
 240 0102 1C       		.byte	(.L17-.L15)/2
 241 0103 29       		.byte	(.L18-.L15)/2
 242              		.p2align 1
 243              	.L14:
 376:main.c        ****         case 0:
 377:main.c        ****         {
 378:main.c        ****             Pin_1A_Write(1);
 244              		.loc 1 378 0
 245 0104 0120     		movs	r0, #1
 246 0106 FFF7FEFF 		bl	Pin_1A_Write
 247              	.LVL32:
 379:main.c        ****     Pin_2A_Write(0);
 248              		.loc 1 379 0
ARM GAS  C:\Users\marti\AppData\Local\Temp\ccSjfyJc.s 			page 12


 249 010a 0020     		movs	r0, #0
 250 010c FFF7FEFF 		bl	Pin_2A_Write
 251              	.LVL33:
 380:main.c        ****     Pin_1B_Write(0);
 252              		.loc 1 380 0
 253 0110 0020     		movs	r0, #0
 254 0112 FFF7FEFF 		bl	Pin_1B_Write
 255              	.LVL34:
 381:main.c        ****     Pin_2B_Write(0);
 256              		.loc 1 381 0
 257 0116 0020     		movs	r0, #0
 258 0118 FFF7FEFF 		bl	Pin_2B_Write
 259              	.LVL35:
 382:main.c        ****         }
 383:main.c        ****         break;
 260              		.loc 1 383 0
 261 011c 25E0     		b	.L13
 262              	.L16:
 384:main.c        ****         case 1:
 385:main.c        ****         {
 386:main.c        ****             Pin_2A_Write(1);
 263              		.loc 1 386 0
 264 011e 0120     		movs	r0, #1
 265 0120 FFF7FEFF 		bl	Pin_2A_Write
 266              	.LVL36:
 387:main.c        ****             Pin_1A_Write(0);
 267              		.loc 1 387 0
 268 0124 0020     		movs	r0, #0
 269 0126 FFF7FEFF 		bl	Pin_1A_Write
 270              	.LVL37:
 388:main.c        ****     Pin_1B_Write(0);
 271              		.loc 1 388 0
 272 012a 0020     		movs	r0, #0
 273 012c FFF7FEFF 		bl	Pin_1B_Write
 274              	.LVL38:
 389:main.c        ****     Pin_2B_Write(0);
 275              		.loc 1 389 0
 276 0130 0020     		movs	r0, #0
 277 0132 FFF7FEFF 		bl	Pin_2B_Write
 278              	.LVL39:
 390:main.c        ****         }
 391:main.c        ****         break;
 279              		.loc 1 391 0
 280 0136 18E0     		b	.L13
 281              	.L17:
 392:main.c        ****         case 2:
 393:main.c        ****         {
 394:main.c        ****             Pin_1B_Write(1);
 282              		.loc 1 394 0
 283 0138 0120     		movs	r0, #1
 284 013a FFF7FEFF 		bl	Pin_1B_Write
 285              	.LVL40:
 395:main.c        ****             Pin_1A_Write(0);
 286              		.loc 1 395 0
 287 013e 0020     		movs	r0, #0
 288 0140 FFF7FEFF 		bl	Pin_1A_Write
 289              	.LVL41:
ARM GAS  C:\Users\marti\AppData\Local\Temp\ccSjfyJc.s 			page 13


 396:main.c        ****     Pin_2A_Write(0);
 290              		.loc 1 396 0
 291 0144 0020     		movs	r0, #0
 292 0146 FFF7FEFF 		bl	Pin_2A_Write
 293              	.LVL42:
 397:main.c        ****     Pin_2B_Write(0);
 294              		.loc 1 397 0
 295 014a 0020     		movs	r0, #0
 296 014c FFF7FEFF 		bl	Pin_2B_Write
 297              	.LVL43:
 398:main.c        ****         }
 399:main.c        ****         break;
 298              		.loc 1 399 0
 299 0150 0BE0     		b	.L13
 300              	.L18:
 400:main.c        ****         case 3:
 401:main.c        ****         {
 402:main.c        ****             Pin_2B_Write(1);
 301              		.loc 1 402 0
 302 0152 0120     		movs	r0, #1
 303 0154 FFF7FEFF 		bl	Pin_2B_Write
 304              	.LVL44:
 403:main.c        ****             Pin_1A_Write(0);
 305              		.loc 1 403 0
 306 0158 0020     		movs	r0, #0
 307 015a FFF7FEFF 		bl	Pin_1A_Write
 308              	.LVL45:
 404:main.c        ****     Pin_2A_Write(0);
 309              		.loc 1 404 0
 310 015e 0020     		movs	r0, #0
 311 0160 FFF7FEFF 		bl	Pin_2A_Write
 312              	.LVL46:
 405:main.c        ****     Pin_1B_Write(0);
 313              		.loc 1 405 0
 314 0164 0020     		movs	r0, #0
 315 0166 FFF7FEFF 		bl	Pin_1B_Write
 316              	.LVL47:
 317              	.L13:
 406:main.c        ****         }
 407:main.c        ****         break;
 408:main.c        ****         default :
 409:main.c        ****         {
 410:main.c        ****             // nothing
 411:main.c        ****         }
 412:main.c        ****         break;
 413:main.c        ****     }
 414:main.c        ****     }
 415:main.c        ****     
 416:main.c        ****     if(mode==FULL) {
 318              		.loc 1 416 0
 319 016a 204B     		ldr	r3, .L26
 320 016c 1B78     		ldrb	r3, [r3]	@ zero_extendqisi2
 321 016e 012B     		cmp	r3, #1
 322 0170 3AD1     		bne	.L2
 417:main.c        ****         switch(state) {
 323              		.loc 1 417 0
 324 0172 1E4B     		ldr	r3, .L26
ARM GAS  C:\Users\marti\AppData\Local\Temp\ccSjfyJc.s 			page 14


 325 0174 5B68     		ldr	r3, [r3, #4]
 326 0176 032B     		cmp	r3, #3
 327 0178 36D8     		bhi	.L2
 328 017a DFE803F0 		tbb	[pc, r3]
 329              	.L21:
 330 017e 02       		.byte	(.L20-.L21)/2
 331 017f 0F       		.byte	(.L22-.L21)/2
 332 0180 1C       		.byte	(.L23-.L21)/2
 333 0181 29       		.byte	(.L24-.L21)/2
 334              		.p2align 1
 335              	.L20:
 418:main.c        ****         case 0:
 419:main.c        ****         {
 420:main.c        ****             Pin_1A_Write(1);
 336              		.loc 1 420 0
 337 0182 0120     		movs	r0, #1
 338 0184 FFF7FEFF 		bl	Pin_1A_Write
 339              	.LVL48:
 421:main.c        ****     Pin_2A_Write(0);
 340              		.loc 1 421 0
 341 0188 0020     		movs	r0, #0
 342 018a FFF7FEFF 		bl	Pin_2A_Write
 343              	.LVL49:
 422:main.c        ****     Pin_1B_Write(0);
 344              		.loc 1 422 0
 345 018e 0020     		movs	r0, #0
 346 0190 FFF7FEFF 		bl	Pin_1B_Write
 347              	.LVL50:
 423:main.c        ****     Pin_2B_Write(0);
 348              		.loc 1 423 0
 349 0194 0020     		movs	r0, #0
 350 0196 FFF7FEFF 		bl	Pin_2B_Write
 351              	.LVL51:
 424:main.c        ****         }
 425:main.c        ****         break;
 352              		.loc 1 425 0
 353 019a 08BD     		pop	{r3, pc}
 354              	.L22:
 426:main.c        ****         case 1:
 427:main.c        ****         {
 428:main.c        ****             Pin_2A_Write(1);
 355              		.loc 1 428 0
 356 019c 0120     		movs	r0, #1
 357 019e FFF7FEFF 		bl	Pin_2A_Write
 358              	.LVL52:
 429:main.c        ****             Pin_1A_Write(0);
 359              		.loc 1 429 0
 360 01a2 0020     		movs	r0, #0
 361 01a4 FFF7FEFF 		bl	Pin_1A_Write
 362              	.LVL53:
 430:main.c        ****     Pin_1B_Write(0);
 363              		.loc 1 430 0
 364 01a8 0020     		movs	r0, #0
 365 01aa FFF7FEFF 		bl	Pin_1B_Write
 366              	.LVL54:
 431:main.c        ****     Pin_2B_Write(0);
 367              		.loc 1 431 0
ARM GAS  C:\Users\marti\AppData\Local\Temp\ccSjfyJc.s 			page 15


 368 01ae 0020     		movs	r0, #0
 369 01b0 FFF7FEFF 		bl	Pin_2B_Write
 370              	.LVL55:
 432:main.c        ****         }
 433:main.c        ****         break;
 371              		.loc 1 433 0
 372 01b4 08BD     		pop	{r3, pc}
 373              	.L23:
 434:main.c        ****         case 2:
 435:main.c        ****         {
 436:main.c        ****             Pin_1B_Write(1);
 374              		.loc 1 436 0
 375 01b6 0120     		movs	r0, #1
 376 01b8 FFF7FEFF 		bl	Pin_1B_Write
 377              	.LVL56:
 437:main.c        ****             Pin_1A_Write(0);
 378              		.loc 1 437 0
 379 01bc 0020     		movs	r0, #0
 380 01be FFF7FEFF 		bl	Pin_1A_Write
 381              	.LVL57:
 438:main.c        ****     Pin_2A_Write(0);
 382              		.loc 1 438 0
 383 01c2 0020     		movs	r0, #0
 384 01c4 FFF7FEFF 		bl	Pin_2A_Write
 385              	.LVL58:
 439:main.c        ****     Pin_2B_Write(0);
 386              		.loc 1 439 0
 387 01c8 0020     		movs	r0, #0
 388 01ca FFF7FEFF 		bl	Pin_2B_Write
 389              	.LVL59:
 440:main.c        ****         }
 441:main.c        ****         break;
 390              		.loc 1 441 0
 391 01ce 08BD     		pop	{r3, pc}
 392              	.L24:
 442:main.c        ****         case 3:
 443:main.c        ****         {
 444:main.c        ****             Pin_2B_Write(1);
 393              		.loc 1 444 0
 394 01d0 0120     		movs	r0, #1
 395 01d2 FFF7FEFF 		bl	Pin_2B_Write
 396              	.LVL60:
 445:main.c        ****             Pin_1A_Write(0);
 397              		.loc 1 445 0
 398 01d6 0020     		movs	r0, #0
 399 01d8 FFF7FEFF 		bl	Pin_1A_Write
 400              	.LVL61:
 446:main.c        ****     Pin_2A_Write(0);
 401              		.loc 1 446 0
 402 01dc 0020     		movs	r0, #0
 403 01de FFF7FEFF 		bl	Pin_2A_Write
 404              	.LVL62:
 447:main.c        ****     Pin_1B_Write(0);
 405              		.loc 1 447 0
 406 01e2 0020     		movs	r0, #0
 407 01e4 FFF7FEFF 		bl	Pin_1B_Write
 408              	.LVL63:
ARM GAS  C:\Users\marti\AppData\Local\Temp\ccSjfyJc.s 			page 16


 409              	.L2:
 410 01e8 08BD     		pop	{r3, pc}
 411              	.L27:
 412 01ea 00BF     		.align	2
 413              	.L26:
 414 01ec 00000000 		.word	.LANCHOR0
 415              		.cfi_endproc
 416              	.LFE67:
 417              		.size	change, .-change
 418              		.section	.text.main,"ax",%progbits
 419              		.align	2
 420              		.global	main
 421              		.thumb
 422              		.thumb_func
 423              		.type	main, %function
 424              	main:
 425              	.LFB63:
  62:main.c        ****     CyGlobalIntEnable; /* Enable global interrupts. */
 426              		.loc 1 62 0
 427              		.cfi_startproc
 428              		@ Volatile: function does not return.
 429              		@ args = 0, pretend = 0, frame = 0
 430              		@ frame_needed = 0, uses_anonymous_args = 0
 431 0000 08B5     		push	{r3, lr}
 432              		.cfi_def_cfa_offset 8
 433              		.cfi_offset 3, -8
 434              		.cfi_offset 14, -4
  63:main.c        **** 
 435              		.loc 1 63 0
 436              		.syntax unified
 437              	@ 63 "main.c" 1
 438 0002 62B6     		CPSIE   i
 439              	@ 0 "" 2
  66:main.c        ****     isr_timer_StartEx(isr_timer_handler);
 440              		.loc 1 66 0
 441              		.thumb
 442              		.syntax unified
 443 0004 5148     		ldr	r0, .L46
 444 0006 FFF7FEFF 		bl	isr_uart_rx_StartEx
 445              	.LVL64:
  67:main.c        ****     
 446              		.loc 1 67 0
 447 000a 5148     		ldr	r0, .L46+4
 448 000c FFF7FEFF 		bl	isr_timer_StartEx
 449              	.LVL65:
  69:main.c        ****     PWM_1_Start();
 450              		.loc 1 69 0
 451 0010 FFF7FEFF 		bl	UART_1_Start
 452              	.LVL66:
  70:main.c        ****     Timer_1_Start();
 453              		.loc 1 70 0
 454 0014 FFF7FEFF 		bl	PWM_1_Start
 455              	.LVL67:
  71:main.c        ****     
 456              		.loc 1 71 0
 457 0018 FFF7FEFF 		bl	Timer_1_Start
 458              	.LVL68:
ARM GAS  C:\Users\marti\AppData\Local\Temp\ccSjfyJc.s 			page 17


  74:main.c        ****     UART_1_PutString("0: Stop\r\n");
 459              		.loc 1 74 0
 460 001c 4D48     		ldr	r0, .L46+8
 461 001e FFF7FEFF 		bl	UART_1_PutString
 462              	.LVL69:
  75:main.c        ****     UART_1_PutString("1: Drive forwards\r\n");
 463              		.loc 1 75 0
 464 0022 4D48     		ldr	r0, .L46+12
 465 0024 FFF7FEFF 		bl	UART_1_PutString
 466              	.LVL70:
  76:main.c        ****     UART_1_PutString("2: Drive backwards\r\n");
 467              		.loc 1 76 0
 468 0028 4C48     		ldr	r0, .L46+16
 469 002a FFF7FEFF 		bl	UART_1_PutString
 470              	.LVL71:
  77:main.c        ****     UART_1_PutString("q: Decrease speed\r\n");
 471              		.loc 1 77 0
 472 002e 4C48     		ldr	r0, .L46+20
 473 0030 FFF7FEFF 		bl	UART_1_PutString
 474              	.LVL72:
  78:main.c        ****     UART_1_PutString("w: Increase speed\r\n");
 475              		.loc 1 78 0
 476 0034 4B48     		ldr	r0, .L46+24
 477 0036 FFF7FEFF 		bl	UART_1_PutString
 478              	.LVL73:
  79:main.c        ****     
 479              		.loc 1 79 0
 480 003a 4B48     		ldr	r0, .L46+28
 481 003c FFF7FEFF 		bl	UART_1_PutString
 482              	.LVL74:
  81:main.c        ****     UART_1_PutString("7: fullstep\r\n");
 483              		.loc 1 81 0
 484 0040 4A48     		ldr	r0, .L46+32
 485 0042 FFF7FEFF 		bl	UART_1_PutString
 486              	.LVL75:
  82:main.c        ****     UART_1_PutString("8: halfstep\r\n");
 487              		.loc 1 82 0
 488 0046 4A48     		ldr	r0, .L46+36
 489 0048 FFF7FEFF 		bl	UART_1_PutString
 490              	.LVL76:
  83:main.c        ****     
 491              		.loc 1 83 0
 492 004c 4948     		ldr	r0, .L46+40
 493 004e FFF7FEFF 		bl	UART_1_PutString
 494              	.LVL77:
  85:main.c        **** 
 495              		.loc 1 85 0
 496 0052 4948     		ldr	r0, .L46+44
 497 0054 FFF7FEFF 		bl	UART_1_PutString
 498              	.LVL78:
 499              	.L30:
  89:main.c        ****          counter++;
 500              		.loc 1 89 0
 501 0058 484B     		ldr	r3, .L46+48
 502 005a 9B68     		ldr	r3, [r3, #8]
 503 005c 4BB1     		cbz	r3, .L29
  90:main.c        ****          if(counter>2000) {
ARM GAS  C:\Users\marti\AppData\Local\Temp\ccSjfyJc.s 			page 18


 504              		.loc 1 90 0
 505 005e 474A     		ldr	r2, .L46+48
 506 0060 D368     		ldr	r3, [r2, #12]
 507 0062 0133     		adds	r3, r3, #1
 508 0064 D360     		str	r3, [r2, #12]
  91:main.c        ****         turnOn=0;
 509              		.loc 1 91 0
 510 0066 B3F5FA6F 		cmp	r3, #2000
 511 006a 02DD     		ble	.L29
  92:main.c        ****         }
 512              		.loc 1 92 0
 513 006c 0022     		movs	r2, #0
 514 006e 444B     		ldr	r3, .L46+52
 515 0070 1A60     		str	r2, [r3]
 516              	.L29:
  95:main.c        ****         
 517              		.loc 1 95 0
 518 0072 434B     		ldr	r3, .L46+52
 519 0074 1B68     		ldr	r3, [r3]
 520 0076 002B     		cmp	r3, #0
 521 0078 EED0     		beq	.L30
  97:main.c        ****         case WAVE:
 522              		.loc 1 97 0
 523 007a 404B     		ldr	r3, .L46+48
 524 007c 1B78     		ldrb	r3, [r3]	@ zero_extendqisi2
 525 007e 012B     		cmp	r3, #1
 526 0080 23D0     		beq	.L32
 527 0082 13B1     		cbz	r3, .L33
 528 0084 022B     		cmp	r3, #2
 529 0086 40D0     		beq	.L34
 530 0088 5AE0     		b	.L31
 531              	.L33:
 101:main.c        ****              case FORWARD:
 532              		.loc 1 101 0
 533 008a 3C4B     		ldr	r3, .L46+48
 534 008c 1B7C     		ldrb	r3, [r3, #16]	@ zero_extendqisi2
 535 008e 13B1     		cbz	r3, .L36
 536 0090 012B     		cmp	r3, #1
 537 0092 0AD0     		beq	.L37
 538 0094 12E0     		b	.L35
 539              	.L36:
 104:main.c        ****                     if(state>=4) {
 540              		.loc 1 104 0
 541 0096 394A     		ldr	r2, .L46+48
 542 0098 5368     		ldr	r3, [r2, #4]
 543 009a 0133     		adds	r3, r3, #1
 544 009c 5360     		str	r3, [r2, #4]
 105:main.c        ****                     state=0;
 545              		.loc 1 105 0
 546 009e 032B     		cmp	r3, #3
 547 00a0 0CDD     		ble	.L35
 106:main.c        ****                     }
 548              		.loc 1 106 0
 549 00a2 0022     		movs	r2, #0
 550 00a4 354B     		ldr	r3, .L46+48
 551 00a6 5A60     		str	r2, [r3, #4]
 552 00a8 08E0     		b	.L35
ARM GAS  C:\Users\marti\AppData\Local\Temp\ccSjfyJc.s 			page 19


 553              	.L37:
 112:main.c        ****                     if(state<0) {
 554              		.loc 1 112 0
 555 00aa 344A     		ldr	r2, .L46+48
 556 00ac 5368     		ldr	r3, [r2, #4]
 557 00ae 013B     		subs	r3, r3, #1
 558 00b0 5360     		str	r3, [r2, #4]
 113:main.c        ****                     state=3;
 559              		.loc 1 113 0
 560 00b2 002B     		cmp	r3, #0
 561 00b4 02DA     		bge	.L35
 114:main.c        ****                     }
 562              		.loc 1 114 0
 563 00b6 0322     		movs	r2, #3
 564 00b8 304B     		ldr	r3, .L46+48
 565 00ba 5A60     		str	r2, [r3, #4]
 566              	.L35:
 128:main.c        ****             CyDelay(speed);
 567              		.loc 1 128 0
 568 00bc FFF7FEFF 		bl	change
 569              	.LVL79:
 129:main.c        ****         }
 570              		.loc 1 129 0
 571 00c0 2F4B     		ldr	r3, .L46+52
 572 00c2 5868     		ldr	r0, [r3, #4]
 573 00c4 FFF7FEFF 		bl	CyDelay
 574              	.LVL80:
 131:main.c        ****         
 575              		.loc 1 131 0
 576 00c8 3AE0     		b	.L31
 577              	.L32:
 135:main.c        ****              case FORWARD:
 578              		.loc 1 135 0
 579 00ca 2C4B     		ldr	r3, .L46+48
 580 00cc 1B7C     		ldrb	r3, [r3, #16]	@ zero_extendqisi2
 581 00ce 13B1     		cbz	r3, .L39
 582 00d0 012B     		cmp	r3, #1
 583 00d2 0AD0     		beq	.L40
 584 00d4 12E0     		b	.L38
 585              	.L39:
 138:main.c        ****                     
 586              		.loc 1 138 0
 587 00d6 294A     		ldr	r2, .L46+48
 588 00d8 5368     		ldr	r3, [r2, #4]
 589 00da 0133     		adds	r3, r3, #1
 590 00dc 5360     		str	r3, [r2, #4]
 140:main.c        ****                     state=0;
 591              		.loc 1 140 0
 592 00de 032B     		cmp	r3, #3
 593 00e0 0CDD     		ble	.L38
 141:main.c        ****                     }
 594              		.loc 1 141 0
 595 00e2 0022     		movs	r2, #0
 596 00e4 254B     		ldr	r3, .L46+48
 597 00e6 5A60     		str	r2, [r3, #4]
 598 00e8 08E0     		b	.L38
 599              	.L40:
ARM GAS  C:\Users\marti\AppData\Local\Temp\ccSjfyJc.s 			page 20


 147:main.c        ****                     if(state<0) {
 600              		.loc 1 147 0
 601 00ea 244A     		ldr	r2, .L46+48
 602 00ec 5368     		ldr	r3, [r2, #4]
 603 00ee 013B     		subs	r3, r3, #1
 604 00f0 5360     		str	r3, [r2, #4]
 148:main.c        ****                     state=3;
 605              		.loc 1 148 0
 606 00f2 002B     		cmp	r3, #0
 607 00f4 02DA     		bge	.L38
 149:main.c        ****                     }
 608              		.loc 1 149 0
 609 00f6 0322     		movs	r2, #3
 610 00f8 204B     		ldr	r3, .L46+48
 611 00fa 5A60     		str	r2, [r3, #4]
 612              	.L38:
 161:main.c        ****             CyDelay(speed);
 613              		.loc 1 161 0
 614 00fc FFF7FEFF 		bl	change
 615              	.LVL81:
 162:main.c        ****         }
 616              		.loc 1 162 0
 617 0100 1F4B     		ldr	r3, .L46+52
 618 0102 5868     		ldr	r0, [r3, #4]
 619 0104 FFF7FEFF 		bl	CyDelay
 620              	.LVL82:
 164:main.c        ****         
 621              		.loc 1 164 0
 622 0108 1AE0     		b	.L31
 623              	.L34:
 168:main.c        ****              case FORWARD:
 624              		.loc 1 168 0
 625 010a 1C4B     		ldr	r3, .L46+48
 626 010c 1B7C     		ldrb	r3, [r3, #16]	@ zero_extendqisi2
 627 010e 13B1     		cbz	r3, .L42
 628 0110 012B     		cmp	r3, #1
 629 0112 0AD0     		beq	.L43
 630 0114 12E0     		b	.L41
 631              	.L42:
 171:main.c        ****                     
 632              		.loc 1 171 0
 633 0116 194A     		ldr	r2, .L46+48
 634 0118 5368     		ldr	r3, [r2, #4]
 635 011a 0133     		adds	r3, r3, #1
 636 011c 5360     		str	r3, [r2, #4]
 173:main.c        ****                     state=0;
 637              		.loc 1 173 0
 638 011e 072B     		cmp	r3, #7
 639 0120 0CDD     		ble	.L41
 174:main.c        ****                     }
 640              		.loc 1 174 0
 641 0122 0022     		movs	r2, #0
 642 0124 154B     		ldr	r3, .L46+48
 643 0126 5A60     		str	r2, [r3, #4]
 644 0128 08E0     		b	.L41
 645              	.L43:
 180:main.c        ****                     if(state<0) {
ARM GAS  C:\Users\marti\AppData\Local\Temp\ccSjfyJc.s 			page 21


 646              		.loc 1 180 0
 647 012a 144A     		ldr	r2, .L46+48
 648 012c 5368     		ldr	r3, [r2, #4]
 649 012e 013B     		subs	r3, r3, #1
 650 0130 5360     		str	r3, [r2, #4]
 181:main.c        ****                     state=7;
 651              		.loc 1 181 0
 652 0132 002B     		cmp	r3, #0
 653 0134 02DA     		bge	.L41
 182:main.c        ****                     }
 654              		.loc 1 182 0
 655 0136 0722     		movs	r2, #7
 656 0138 104B     		ldr	r3, .L46+48
 657 013a 5A60     		str	r2, [r3, #4]
 658              	.L41:
 194:main.c        ****         }
 659              		.loc 1 194 0
 660 013c FFF7FEFF 		bl	change
 661              	.LVL83:
 662              	.L31:
 208:main.c        ****         /* Place your application code here. */
 663              		.loc 1 208 0
 664 0140 0F4B     		ldr	r3, .L46+52
 665 0142 5868     		ldr	r0, [r3, #4]
 666 0144 FFF7FEFF 		bl	CyDelay
 667              	.LVL84:
 668 0148 86E7     		b	.L30
 669              	.L47:
 670 014a 00BF     		.align	2
 671              	.L46:
 672 014c 00000000 		.word	ISR_UART_rx_handler
 673 0150 00000000 		.word	isr_timer_handler
 674 0154 00000000 		.word	.LC0
 675 0158 24000000 		.word	.LC1
 676 015c 30000000 		.word	.LC2
 677 0160 44000000 		.word	.LC3
 678 0164 5C000000 		.word	.LC4
 679 0168 70000000 		.word	.LC5
 680 016c 84000000 		.word	.LC6
 681 0170 90000000 		.word	.LC7
 682 0174 A0000000 		.word	.LC8
 683 0178 B0000000 		.word	.LC9
 684 017c 00000000 		.word	.LANCHOR0
 685 0180 00000000 		.word	.LANCHOR1
 686              		.cfi_endproc
 687              	.LFE63:
 688              		.size	main, .-main
 689              		.section	.text.decreaseSpeed,"ax",%progbits
 690              		.align	2
 691              		.global	decreaseSpeed
 692              		.thumb
 693              		.thumb_func
 694              		.type	decreaseSpeed, %function
 695              	decreaseSpeed:
 696              	.LFB68:
 448:main.c        ****         }
 449:main.c        ****         break;
ARM GAS  C:\Users\marti\AppData\Local\Temp\ccSjfyJc.s 			page 22


 450:main.c        ****         default :
 451:main.c        ****         {
 452:main.c        ****             // nothing
 453:main.c        ****         }
 454:main.c        ****         break;
 455:main.c        ****     }
 456:main.c        ****     }
 457:main.c        **** }
 458:main.c        **** void decreaseSpeed()
 459:main.c        **** {
 697              		.loc 1 459 0
 698              		.cfi_startproc
 699              		@ args = 0, pretend = 0, frame = 0
 700              		@ frame_needed = 0, uses_anonymous_args = 0
 701 0000 08B5     		push	{r3, lr}
 702              		.cfi_def_cfa_offset 8
 703              		.cfi_offset 3, -8
 704              		.cfi_offset 14, -4
 460:main.c        ****     UART_1_PutString("Increasing speed\r\n");
 705              		.loc 1 460 0
 706 0002 0548     		ldr	r0, .L51
 707 0004 FFF7FEFF 		bl	UART_1_PutString
 708              	.LVL85:
 461:main.c        ****     if(speed<20) {
 709              		.loc 1 461 0
 710 0008 044B     		ldr	r3, .L51+4
 711 000a 5B68     		ldr	r3, [r3, #4]
 712 000c 132B     		cmp	r3, #19
 713 000e 02DC     		bgt	.L48
 462:main.c        ****     speed+=1;
 714              		.loc 1 462 0
 715 0010 0133     		adds	r3, r3, #1
 716 0012 024A     		ldr	r2, .L51+4
 717 0014 5360     		str	r3, [r2, #4]
 718              	.L48:
 719 0016 08BD     		pop	{r3, pc}
 720              	.L52:
 721              		.align	2
 722              	.L51:
 723 0018 C4000000 		.word	.LC10
 724 001c 00000000 		.word	.LANCHOR1
 725              		.cfi_endproc
 726              	.LFE68:
 727              		.size	decreaseSpeed, .-decreaseSpeed
 728              		.section	.text.increaseSpeed,"ax",%progbits
 729              		.align	2
 730              		.global	increaseSpeed
 731              		.thumb
 732              		.thumb_func
 733              		.type	increaseSpeed, %function
 734              	increaseSpeed:
 735              	.LFB69:
 463:main.c        ****     }
 464:main.c        ****     
 465:main.c        ****     
 466:main.c        **** }
 467:main.c        **** 
ARM GAS  C:\Users\marti\AppData\Local\Temp\ccSjfyJc.s 			page 23


 468:main.c        **** void increaseSpeed()
 469:main.c        **** {
 736              		.loc 1 469 0
 737              		.cfi_startproc
 738              		@ args = 0, pretend = 0, frame = 0
 739              		@ frame_needed = 0, uses_anonymous_args = 0
 740 0000 08B5     		push	{r3, lr}
 741              		.cfi_def_cfa_offset 8
 742              		.cfi_offset 3, -8
 743              		.cfi_offset 14, -4
 470:main.c        ****     UART_1_PutString("Decreasing speed\r\n");
 744              		.loc 1 470 0
 745 0002 0548     		ldr	r0, .L56
 746 0004 FFF7FEFF 		bl	UART_1_PutString
 747              	.LVL86:
 471:main.c        ****     if(speed>1) {
 748              		.loc 1 471 0
 749 0008 044B     		ldr	r3, .L56+4
 750 000a 5B68     		ldr	r3, [r3, #4]
 751 000c 012B     		cmp	r3, #1
 752 000e 02DD     		ble	.L53
 472:main.c        ****     speed-=1;
 753              		.loc 1 472 0
 754 0010 013B     		subs	r3, r3, #1
 755 0012 024A     		ldr	r2, .L56+4
 756 0014 5360     		str	r3, [r2, #4]
 757              	.L53:
 758 0016 08BD     		pop	{r3, pc}
 759              	.L57:
 760              		.align	2
 761              	.L56:
 762 0018 D8000000 		.word	.LC11
 763 001c 00000000 		.word	.LANCHOR1
 764              		.cfi_endproc
 765              	.LFE69:
 766              		.size	increaseSpeed, .-increaseSpeed
 767              		.section	.text.driveForwards,"ax",%progbits
 768              		.align	2
 769              		.global	driveForwards
 770              		.thumb
 771              		.thumb_func
 772              		.type	driveForwards, %function
 773              	driveForwards:
 774              	.LFB70:
 473:main.c        ****     }
 474:main.c        ****     //UART_1_PutString("mere\r\n");
 475:main.c        ****     
 476:main.c        ****     
 477:main.c        **** }
 478:main.c        **** 
 479:main.c        **** void driveForwards()
 480:main.c        **** {
 775              		.loc 1 480 0
 776              		.cfi_startproc
 777              		@ args = 0, pretend = 0, frame = 0
 778              		@ frame_needed = 0, uses_anonymous_args = 0
 779 0000 08B5     		push	{r3, lr}
ARM GAS  C:\Users\marti\AppData\Local\Temp\ccSjfyJc.s 			page 24


 780              		.cfi_def_cfa_offset 8
 781              		.cfi_offset 3, -8
 782              		.cfi_offset 14, -4
 481:main.c        ****     UART_1_PutString("Set direction: forwards\r\n");
 783              		.loc 1 481 0
 784 0002 0348     		ldr	r0, .L60
 785 0004 FFF7FEFF 		bl	UART_1_PutString
 786              	.LVL87:
 482:main.c        ****     direction = FORWARD;
 787              		.loc 1 482 0
 788 0008 0022     		movs	r2, #0
 789 000a 024B     		ldr	r3, .L60+4
 790 000c 1A74     		strb	r2, [r3, #16]
 791 000e 08BD     		pop	{r3, pc}
 792              	.L61:
 793              		.align	2
 794              	.L60:
 795 0010 EC000000 		.word	.LC12
 796 0014 00000000 		.word	.LANCHOR0
 797              		.cfi_endproc
 798              	.LFE70:
 799              		.size	driveForwards, .-driveForwards
 800              		.section	.text.driveBackwards,"ax",%progbits
 801              		.align	2
 802              		.global	driveBackwards
 803              		.thumb
 804              		.thumb_func
 805              		.type	driveBackwards, %function
 806              	driveBackwards:
 807              	.LFB71:
 483:main.c        ****     
 484:main.c        **** }
 485:main.c        **** 
 486:main.c        **** void driveBackwards()
 487:main.c        **** {
 808              		.loc 1 487 0
 809              		.cfi_startproc
 810              		@ args = 0, pretend = 0, frame = 0
 811              		@ frame_needed = 0, uses_anonymous_args = 0
 812 0000 08B5     		push	{r3, lr}
 813              		.cfi_def_cfa_offset 8
 814              		.cfi_offset 3, -8
 815              		.cfi_offset 14, -4
 488:main.c        ****     UART_1_PutString("Set direction: backwards\r\n");
 816              		.loc 1 488 0
 817 0002 0348     		ldr	r0, .L64
 818 0004 FFF7FEFF 		bl	UART_1_PutString
 819              	.LVL88:
 489:main.c        ****     direction = BACKWARD;
 820              		.loc 1 489 0
 821 0008 0122     		movs	r2, #1
 822 000a 024B     		ldr	r3, .L64+4
 823 000c 1A74     		strb	r2, [r3, #16]
 824 000e 08BD     		pop	{r3, pc}
 825              	.L65:
 826              		.align	2
 827              	.L64:
ARM GAS  C:\Users\marti\AppData\Local\Temp\ccSjfyJc.s 			page 25


 828 0010 08010000 		.word	.LC13
 829 0014 00000000 		.word	.LANCHOR0
 830              		.cfi_endproc
 831              	.LFE71:
 832              		.size	driveBackwards, .-driveBackwards
 833              		.section	.text.stop,"ax",%progbits
 834              		.align	2
 835              		.global	stop
 836              		.thumb
 837              		.thumb_func
 838              		.type	stop, %function
 839              	stop:
 840              	.LFB72:
 490:main.c        **** }
 491:main.c        **** 
 492:main.c        **** void stop()
 493:main.c        **** {
 841              		.loc 1 493 0
 842              		.cfi_startproc
 843              		@ args = 0, pretend = 0, frame = 0
 844              		@ frame_needed = 0, uses_anonymous_args = 0
 845 0000 08B5     		push	{r3, lr}
 846              		.cfi_def_cfa_offset 8
 847              		.cfi_offset 3, -8
 848              		.cfi_offset 14, -4
 494:main.c        ****     UART_1_PutString("Stop\r\n");
 849              		.loc 1 494 0
 850 0002 0348     		ldr	r0, .L68
 851 0004 FFF7FEFF 		bl	UART_1_PutString
 852              	.LVL89:
 495:main.c        ****     turnOn=0;
 853              		.loc 1 495 0
 854 0008 0022     		movs	r2, #0
 855 000a 024B     		ldr	r3, .L68+4
 856 000c 1A60     		str	r2, [r3]
 857 000e 08BD     		pop	{r3, pc}
 858              	.L69:
 859              		.align	2
 860              	.L68:
 861 0010 24010000 		.word	.LC14
 862 0014 00000000 		.word	.LANCHOR1
 863              		.cfi_endproc
 864              	.LFE72:
 865              		.size	stop, .-stop
 866              		.section	.text.oneRotation,"ax",%progbits
 867              		.align	2
 868              		.global	oneRotation
 869              		.thumb
 870              		.thumb_func
 871              		.type	oneRotation, %function
 872              	oneRotation:
 873              	.LFB73:
 496:main.c        **** }
 497:main.c        **** 
 498:main.c        **** void oneRotation()
 499:main.c        **** {
 874              		.loc 1 499 0
ARM GAS  C:\Users\marti\AppData\Local\Temp\ccSjfyJc.s 			page 26


 875              		.cfi_startproc
 876              		@ args = 0, pretend = 0, frame = 0
 877              		@ frame_needed = 0, uses_anonymous_args = 0
 878 0000 08B5     		push	{r3, lr}
 879              		.cfi_def_cfa_offset 8
 880              		.cfi_offset 3, -8
 881              		.cfi_offset 14, -4
 500:main.c        ****     UART_1_PutString("Rotate one time\r\n");
 882              		.loc 1 500 0
 883 0002 0548     		ldr	r0, .L72
 884 0004 FFF7FEFF 		bl	UART_1_PutString
 885              	.LVL90:
 501:main.c        ****     turnOn=1;
 886              		.loc 1 501 0
 887 0008 0122     		movs	r2, #1
 888 000a 044B     		ldr	r3, .L72+4
 889 000c 1A60     		str	r2, [r3]
 502:main.c        ****     counter=0;
 890              		.loc 1 502 0
 891 000e 044B     		ldr	r3, .L72+8
 892 0010 0021     		movs	r1, #0
 893 0012 D960     		str	r1, [r3, #12]
 503:main.c        ****     rotate=1;
 894              		.loc 1 503 0
 895 0014 9A60     		str	r2, [r3, #8]
 896 0016 08BD     		pop	{r3, pc}
 897              	.L73:
 898              		.align	2
 899              	.L72:
 900 0018 2C010000 		.word	.LC15
 901 001c 00000000 		.word	.LANCHOR1
 902 0020 00000000 		.word	.LANCHOR0
 903              		.cfi_endproc
 904              	.LFE73:
 905              		.size	oneRotation, .-oneRotation
 906              		.section	.text.wave,"ax",%progbits
 907              		.align	2
 908              		.global	wave
 909              		.thumb
 910              		.thumb_func
 911              		.type	wave, %function
 912              	wave:
 913              	.LFB74:
 504:main.c        **** }
 505:main.c        **** 
 506:main.c        **** void wave(void) {
 914              		.loc 1 506 0
 915              		.cfi_startproc
 916              		@ args = 0, pretend = 0, frame = 0
 917              		@ frame_needed = 0, uses_anonymous_args = 0
 918 0000 08B5     		push	{r3, lr}
 919              		.cfi_def_cfa_offset 8
 920              		.cfi_offset 3, -8
 921              		.cfi_offset 14, -4
 507:main.c        ****     UART_1_PutString("Wave\r\n");
 922              		.loc 1 507 0
 923 0002 0448     		ldr	r0, .L76
ARM GAS  C:\Users\marti\AppData\Local\Temp\ccSjfyJc.s 			page 27


 924 0004 FFF7FEFF 		bl	UART_1_PutString
 925              	.LVL91:
 508:main.c        ****     state = 0;
 926              		.loc 1 508 0
 927 0008 034B     		ldr	r3, .L76+4
 928 000a 0022     		movs	r2, #0
 929 000c 5A60     		str	r2, [r3, #4]
 509:main.c        ****     mode = WAVE;
 930              		.loc 1 509 0
 931 000e 1A70     		strb	r2, [r3]
 932 0010 08BD     		pop	{r3, pc}
 933              	.L77:
 934 0012 00BF     		.align	2
 935              	.L76:
 936 0014 40010000 		.word	.LC16
 937 0018 00000000 		.word	.LANCHOR0
 938              		.cfi_endproc
 939              	.LFE74:
 940              		.size	wave, .-wave
 941              		.section	.text.fullstep,"ax",%progbits
 942              		.align	2
 943              		.global	fullstep
 944              		.thumb
 945              		.thumb_func
 946              		.type	fullstep, %function
 947              	fullstep:
 948              	.LFB75:
 510:main.c        **** }
 511:main.c        **** void fullstep(void) {
 949              		.loc 1 511 0
 950              		.cfi_startproc
 951              		@ args = 0, pretend = 0, frame = 0
 952              		@ frame_needed = 0, uses_anonymous_args = 0
 953 0000 08B5     		push	{r3, lr}
 954              		.cfi_def_cfa_offset 8
 955              		.cfi_offset 3, -8
 956              		.cfi_offset 14, -4
 512:main.c        ****     UART_1_PutString("Fullstep\r\n");
 957              		.loc 1 512 0
 958 0002 0448     		ldr	r0, .L80
 959 0004 FFF7FEFF 		bl	UART_1_PutString
 960              	.LVL92:
 513:main.c        ****     state=1;
 961              		.loc 1 513 0
 962 0008 034B     		ldr	r3, .L80+4
 963 000a 0122     		movs	r2, #1
 964 000c 5A60     		str	r2, [r3, #4]
 514:main.c        ****     mode = FULL;
 965              		.loc 1 514 0
 966 000e 1A70     		strb	r2, [r3]
 967 0010 08BD     		pop	{r3, pc}
 968              	.L81:
 969 0012 00BF     		.align	2
 970              	.L80:
 971 0014 48010000 		.word	.LC17
 972 0018 00000000 		.word	.LANCHOR0
 973              		.cfi_endproc
ARM GAS  C:\Users\marti\AppData\Local\Temp\ccSjfyJc.s 			page 28


 974              	.LFE75:
 975              		.size	fullstep, .-fullstep
 976              		.section	.text.halfstep,"ax",%progbits
 977              		.align	2
 978              		.global	halfstep
 979              		.thumb
 980              		.thumb_func
 981              		.type	halfstep, %function
 982              	halfstep:
 983              	.LFB76:
 515:main.c        **** }
 516:main.c        **** void halfstep(void) {
 984              		.loc 1 516 0
 985              		.cfi_startproc
 986              		@ args = 0, pretend = 0, frame = 0
 987              		@ frame_needed = 0, uses_anonymous_args = 0
 988 0000 08B5     		push	{r3, lr}
 989              		.cfi_def_cfa_offset 8
 990              		.cfi_offset 3, -8
 991              		.cfi_offset 14, -4
 517:main.c        ****     UART_1_PutString("Halfstep\r\n");
 992              		.loc 1 517 0
 993 0002 0448     		ldr	r0, .L84
 994 0004 FFF7FEFF 		bl	UART_1_PutString
 995              	.LVL93:
 518:main.c        ****     state=0;
 996              		.loc 1 518 0
 997 0008 034B     		ldr	r3, .L84+4
 998 000a 0022     		movs	r2, #0
 999 000c 5A60     		str	r2, [r3, #4]
 519:main.c        ****     mode = HALF;
 1000              		.loc 1 519 0
 1001 000e 0222     		movs	r2, #2
 1002 0010 1A70     		strb	r2, [r3]
 1003 0012 08BD     		pop	{r3, pc}
 1004              	.L85:
 1005              		.align	2
 1006              	.L84:
 1007 0014 54010000 		.word	.LC18
 1008 0018 00000000 		.word	.LANCHOR0
 1009              		.cfi_endproc
 1010              	.LFE76:
 1011              		.size	halfstep, .-halfstep
 1012              		.section	.text.handleByteReceived,"ax",%progbits
 1013              		.align	2
 1014              		.global	handleByteReceived
 1015              		.thumb
 1016              		.thumb_func
 1017              		.type	handleByteReceived, %function
 1018              	handleByteReceived:
 1019              	.LFB66:
 235:main.c        ****     switch(byteReceived)
 1020              		.loc 1 235 0
 1021              		.cfi_startproc
 1022              		@ args = 0, pretend = 0, frame = 0
 1023              		@ frame_needed = 0, uses_anonymous_args = 0
 1024              	.LVL94:
ARM GAS  C:\Users\marti\AppData\Local\Temp\ccSjfyJc.s 			page 29


 1025 0000 08B5     		push	{r3, lr}
 1026              		.cfi_def_cfa_offset 8
 1027              		.cfi_offset 3, -8
 1028              		.cfi_offset 14, -4
 236:main.c        ****     {
 1029              		.loc 1 236 0
 1030 0002 3038     		subs	r0, r0, #48
 1031              	.LVL95:
 1032 0004 4728     		cmp	r0, #71
 1033 0006 3ED8     		bhi	.L86
 1034 0008 DFE800F0 		tbb	[pc, r0]
 1035              	.L89:
 1036 000c 30       		.byte	(.L88-.L89)/2
 1037 000d 2A       		.byte	(.L90-.L89)/2
 1038 000e 2D       		.byte	(.L91-.L89)/2
 1039 000f 3D       		.byte	(.L86-.L89)/2
 1040 0010 3D       		.byte	(.L86-.L89)/2
 1041 0011 3D       		.byte	(.L86-.L89)/2
 1042 0012 33       		.byte	(.L92-.L89)/2
 1043 0013 36       		.byte	(.L93-.L89)/2
 1044 0014 39       		.byte	(.L94-.L89)/2
 1045 0015 3D       		.byte	(.L86-.L89)/2
 1046 0016 3D       		.byte	(.L86-.L89)/2
 1047 0017 3D       		.byte	(.L86-.L89)/2
 1048 0018 3D       		.byte	(.L86-.L89)/2
 1049 0019 3D       		.byte	(.L86-.L89)/2
 1050 001a 3D       		.byte	(.L86-.L89)/2
 1051 001b 3D       		.byte	(.L86-.L89)/2
 1052 001c 3D       		.byte	(.L86-.L89)/2
 1053 001d 3D       		.byte	(.L86-.L89)/2
 1054 001e 3D       		.byte	(.L86-.L89)/2
 1055 001f 3D       		.byte	(.L86-.L89)/2
 1056 0020 3D       		.byte	(.L86-.L89)/2
 1057 0021 3D       		.byte	(.L86-.L89)/2
 1058 0022 3D       		.byte	(.L86-.L89)/2
 1059 0023 3D       		.byte	(.L86-.L89)/2
 1060 0024 3D       		.byte	(.L86-.L89)/2
 1061 0025 3D       		.byte	(.L86-.L89)/2
 1062 0026 3D       		.byte	(.L86-.L89)/2
 1063 0027 3D       		.byte	(.L86-.L89)/2
 1064 0028 3D       		.byte	(.L86-.L89)/2
 1065 0029 3D       		.byte	(.L86-.L89)/2
 1066 002a 3D       		.byte	(.L86-.L89)/2
 1067 002b 3D       		.byte	(.L86-.L89)/2
 1068 002c 3D       		.byte	(.L86-.L89)/2
 1069 002d 3D       		.byte	(.L86-.L89)/2
 1070 002e 3D       		.byte	(.L86-.L89)/2
 1071 002f 3D       		.byte	(.L86-.L89)/2
 1072 0030 3D       		.byte	(.L86-.L89)/2
 1073 0031 3D       		.byte	(.L86-.L89)/2
 1074 0032 3D       		.byte	(.L86-.L89)/2
 1075 0033 3D       		.byte	(.L86-.L89)/2
 1076 0034 3D       		.byte	(.L86-.L89)/2
 1077 0035 3D       		.byte	(.L86-.L89)/2
 1078 0036 3D       		.byte	(.L86-.L89)/2
 1079 0037 3D       		.byte	(.L86-.L89)/2
 1080 0038 3D       		.byte	(.L86-.L89)/2
ARM GAS  C:\Users\marti\AppData\Local\Temp\ccSjfyJc.s 			page 30


 1081 0039 3D       		.byte	(.L86-.L89)/2
 1082 003a 3D       		.byte	(.L86-.L89)/2
 1083 003b 3D       		.byte	(.L86-.L89)/2
 1084 003c 3D       		.byte	(.L86-.L89)/2
 1085 003d 3D       		.byte	(.L86-.L89)/2
 1086 003e 3D       		.byte	(.L86-.L89)/2
 1087 003f 3D       		.byte	(.L86-.L89)/2
 1088 0040 3D       		.byte	(.L86-.L89)/2
 1089 0041 3D       		.byte	(.L86-.L89)/2
 1090 0042 3D       		.byte	(.L86-.L89)/2
 1091 0043 3D       		.byte	(.L86-.L89)/2
 1092 0044 3D       		.byte	(.L86-.L89)/2
 1093 0045 3D       		.byte	(.L86-.L89)/2
 1094 0046 3D       		.byte	(.L86-.L89)/2
 1095 0047 3D       		.byte	(.L86-.L89)/2
 1096 0048 3D       		.byte	(.L86-.L89)/2
 1097 0049 3D       		.byte	(.L86-.L89)/2
 1098 004a 3D       		.byte	(.L86-.L89)/2
 1099 004b 3D       		.byte	(.L86-.L89)/2
 1100 004c 3D       		.byte	(.L86-.L89)/2
 1101 004d 24       		.byte	(.L95-.L89)/2
 1102 004e 3B       		.byte	(.L96-.L89)/2
 1103 004f 3D       		.byte	(.L86-.L89)/2
 1104 0050 3D       		.byte	(.L86-.L89)/2
 1105 0051 3D       		.byte	(.L86-.L89)/2
 1106 0052 3D       		.byte	(.L86-.L89)/2
 1107 0053 27       		.byte	(.L97-.L89)/2
 1108              		.p2align 1
 1109              	.L95:
 240:main.c        ****         }
 1110              		.loc 1 240 0
 1111 0054 FFF7FEFF 		bl	decreaseSpeed
 1112              	.LVL96:
 242:main.c        ****         case 'w' :
 1113              		.loc 1 242 0
 1114 0058 08BD     		pop	{r3, pc}
 1115              	.L97:
 245:main.c        ****         }
 1116              		.loc 1 245 0
 1117 005a FFF7FEFF 		bl	increaseSpeed
 1118              	.LVL97:
 247:main.c        ****         case '1' :
 1119              		.loc 1 247 0
 1120 005e 08BD     		pop	{r3, pc}
 1121              	.L90:
 250:main.c        ****         }
 1122              		.loc 1 250 0
 1123 0060 FFF7FEFF 		bl	driveForwards
 1124              	.LVL98:
 252:main.c        ****         case '2' :
 1125              		.loc 1 252 0
 1126 0064 08BD     		pop	{r3, pc}
 1127              	.L91:
 255:main.c        ****         }
 1128              		.loc 1 255 0
 1129 0066 FFF7FEFF 		bl	driveBackwards
 1130              	.LVL99:
ARM GAS  C:\Users\marti\AppData\Local\Temp\ccSjfyJc.s 			page 31


 257:main.c        ****         case '0' :
 1131              		.loc 1 257 0
 1132 006a 08BD     		pop	{r3, pc}
 1133              	.L88:
 260:main.c        ****             
 1134              		.loc 1 260 0
 1135 006c FFF7FEFF 		bl	stop
 1136              	.LVL100:
 263:main.c        ****         
 1137              		.loc 1 263 0
 1138 0070 08BD     		pop	{r3, pc}
 1139              	.L92:
 267:main.c        ****             
 1140              		.loc 1 267 0
 1141 0072 FFF7FEFF 		bl	wave
 1142              	.LVL101:
 270:main.c        ****         
 1143              		.loc 1 270 0
 1144 0076 08BD     		pop	{r3, pc}
 1145              	.L93:
 274:main.c        ****             
 1146              		.loc 1 274 0
 1147 0078 FFF7FEFF 		bl	fullstep
 1148              	.LVL102:
 277:main.c        ****         
 1149              		.loc 1 277 0
 1150 007c 08BD     		pop	{r3, pc}
 1151              	.L94:
 281:main.c        ****             
 1152              		.loc 1 281 0
 1153 007e FFF7FEFF 		bl	halfstep
 1154              	.LVL103:
 1155              	.L96:
 286:main.c        ****             
 1156              		.loc 1 286 0
 1157 0082 FFF7FEFF 		bl	oneRotation
 1158              	.LVL104:
 1159              	.L86:
 1160 0086 08BD     		pop	{r3, pc}
 1161              		.cfi_endproc
 1162              	.LFE66:
 1163              		.size	handleByteReceived, .-handleByteReceived
 1164              		.section	.text.ISR_UART_rx_handler,"ax",%progbits
 1165              		.align	2
 1166              		.global	ISR_UART_rx_handler
 1167              		.thumb
 1168              		.thumb_func
 1169              		.type	ISR_UART_rx_handler, %function
 1170              	ISR_UART_rx_handler:
 1171              	.LFB65:
 221:main.c        ****     uint8_t bytesToRead = UART_1_GetRxBufferSize();
 1172              		.loc 1 221 0
 1173              		.cfi_startproc
 1174              		@ args = 0, pretend = 0, frame = 0
 1175              		@ frame_needed = 0, uses_anonymous_args = 0
 1176 0000 38B5     		push	{r3, r4, r5, lr}
 1177              		.cfi_def_cfa_offset 16
ARM GAS  C:\Users\marti\AppData\Local\Temp\ccSjfyJc.s 			page 32


 1178              		.cfi_offset 3, -16
 1179              		.cfi_offset 4, -12
 1180              		.cfi_offset 5, -8
 1181              		.cfi_offset 14, -4
 222:main.c        ****     while (bytesToRead > 0)
 1182              		.loc 1 222 0
 1183 0002 FFF7FEFF 		bl	UART_1_GetRxBufferSize
 1184              	.LVL105:
 1185 0006 0446     		mov	r4, r0
 1186              	.LVL106:
 223:main.c        ****     {
 1187              		.loc 1 223 0
 1188 0008 09E0     		b	.L100
 1189              	.L101:
 1190              	.LBB2:
 225:main.c        ****         UART_1_WriteTxData(byteReceived); // echo back
 1191              		.loc 1 225 0
 1192 000a FFF7FEFF 		bl	UART_1_ReadRxData
 1193              	.LVL107:
 1194 000e 0546     		mov	r5, r0
 1195              	.LVL108:
 226:main.c        ****         
 1196              		.loc 1 226 0
 1197 0010 FFF7FEFF 		bl	UART_1_WriteTxData
 1198              	.LVL109:
 228:main.c        ****         
 1199              		.loc 1 228 0
 1200 0014 2846     		mov	r0, r5
 1201 0016 FFF7FEFF 		bl	handleByteReceived
 1202              	.LVL110:
 230:main.c        ****     }
 1203              		.loc 1 230 0
 1204 001a 013C     		subs	r4, r4, #1
 1205              	.LVL111:
 1206 001c E4B2     		uxtb	r4, r4
 1207              	.LVL112:
 1208              	.L100:
 1209              	.LBE2:
 223:main.c        ****     {
 1210              		.loc 1 223 0
 1211 001e 002C     		cmp	r4, #0
 1212 0020 F3D1     		bne	.L101
 232:main.c        **** 
 1213              		.loc 1 232 0
 1214 0022 38BD     		pop	{r3, r4, r5, pc}
 1215              		.cfi_endproc
 1216              	.LFE65:
 1217              		.size	ISR_UART_rx_handler, .-ISR_UART_rx_handler
 1218              		.data
 1219              		.align	2
 1220              		.set	.LANCHOR1,. + 0
 1221              		.type	turnOn, %object
 1222              		.size	turnOn, 4
 1223              	turnOn:
 1224 0000 01000000 		.word	1
 1225              		.type	speed, %object
 1226              		.size	speed, 4
ARM GAS  C:\Users\marti\AppData\Local\Temp\ccSjfyJc.s 			page 33


 1227              	speed:
 1228 0004 01000000 		.word	1
 1229              		.section	.rodata.str1.4,"aMS",%progbits,1
 1230              		.align	2
 1231              	.LC0:
 1232 0000 44432D4D 		.ascii	"DC-Motor-PWM application started\015\012\000"
 1232      6F746F72 
 1232      2D50574D 
 1232      20617070 
 1232      6C696361 
 1233 0023 00       		.space	1
 1234              	.LC1:
 1235 0024 303A2053 		.ascii	"0: Stop\015\012\000"
 1235      746F700D 
 1235      0A00
 1236 002e 0000     		.space	2
 1237              	.LC2:
 1238 0030 313A2044 		.ascii	"1: Drive forwards\015\012\000"
 1238      72697665 
 1238      20666F72 
 1238      77617264 
 1238      730D0A00 
 1239              	.LC3:
 1240 0044 323A2044 		.ascii	"2: Drive backwards\015\012\000"
 1240      72697665 
 1240      20626163 
 1240      6B776172 
 1240      64730D0A 
 1241 0059 000000   		.space	3
 1242              	.LC4:
 1243 005c 713A2044 		.ascii	"q: Decrease speed\015\012\000"
 1243      65637265 
 1243      61736520 
 1243      73706565 
 1243      640D0A00 
 1244              	.LC5:
 1245 0070 773A2049 		.ascii	"w: Increase speed\015\012\000"
 1245      6E637265 
 1245      61736520 
 1245      73706565 
 1245      640D0A00 
 1246              	.LC6:
 1247 0084 363A2057 		.ascii	"6: Wave\015\012\000"
 1247      6176650D 
 1247      0A00
 1248 008e 0000     		.space	2
 1249              	.LC7:
 1250 0090 373A2066 		.ascii	"7: fullstep\015\012\000"
 1250      756C6C73 
 1250      7465700D 
 1250      0A00
 1251 009e 0000     		.space	2
 1252              	.LC8:
 1253 00a0 383A2068 		.ascii	"8: halfstep\015\012\000"
 1253      616C6673 
 1253      7465700D 
 1253      0A00
ARM GAS  C:\Users\marti\AppData\Local\Temp\ccSjfyJc.s 			page 34


 1254 00ae 0000     		.space	2
 1255              	.LC9:
 1256 00b0 723A2052 		.ascii	"r: Rotate once\015\012\000"
 1256      6F746174 
 1256      65206F6E 
 1256      63650D0A 
 1256      00
 1257 00c1 000000   		.space	3
 1258              	.LC10:
 1259 00c4 496E6372 		.ascii	"Increasing speed\015\012\000"
 1259      65617369 
 1259      6E672073 
 1259      70656564 
 1259      0D0A00
 1260 00d7 00       		.space	1
 1261              	.LC11:
 1262 00d8 44656372 		.ascii	"Decreasing speed\015\012\000"
 1262      65617369 
 1262      6E672073 
 1262      70656564 
 1262      0D0A00
 1263 00eb 00       		.space	1
 1264              	.LC12:
 1265 00ec 53657420 		.ascii	"Set direction: forwards\015\012\000"
 1265      64697265 
 1265      6374696F 
 1265      6E3A2066 
 1265      6F727761 
 1266 0106 0000     		.space	2
 1267              	.LC13:
 1268 0108 53657420 		.ascii	"Set direction: backwards\015\012\000"
 1268      64697265 
 1268      6374696F 
 1268      6E3A2062 
 1268      61636B77 
 1269 0123 00       		.space	1
 1270              	.LC14:
 1271 0124 53746F70 		.ascii	"Stop\015\012\000"
 1271      0D0A00
 1272 012b 00       		.space	1
 1273              	.LC15:
 1274 012c 526F7461 		.ascii	"Rotate one time\015\012\000"
 1274      7465206F 
 1274      6E652074 
 1274      696D650D 
 1274      0A00
 1275 013e 0000     		.space	2
 1276              	.LC16:
 1277 0140 57617665 		.ascii	"Wave\015\012\000"
 1277      0D0A00
 1278 0147 00       		.space	1
 1279              	.LC17:
 1280 0148 46756C6C 		.ascii	"Fullstep\015\012\000"
 1280      73746570 
 1280      0D0A00
 1281 0153 00       		.space	1
 1282              	.LC18:
ARM GAS  C:\Users\marti\AppData\Local\Temp\ccSjfyJc.s 			page 35


 1283 0154 48616C66 		.ascii	"Halfstep\015\012\000"
 1283      73746570 
 1283      0D0A00
 1284              		.bss
 1285              		.align	2
 1286              		.set	.LANCHOR0,. + 0
 1287              		.type	mode, %object
 1288              		.size	mode, 1
 1289              	mode:
 1290 0000 00       		.space	1
 1291 0001 000000   		.space	3
 1292              		.type	state, %object
 1293              		.size	state, 4
 1294              	state:
 1295 0004 00000000 		.space	4
 1296              		.type	rotate, %object
 1297              		.size	rotate, 4
 1298              	rotate:
 1299 0008 00000000 		.space	4
 1300              		.type	counter, %object
 1301              		.size	counter, 4
 1302              	counter:
 1303 000c 00000000 		.space	4
 1304              		.type	direction, %object
 1305              		.size	direction, 1
 1306              	direction:
 1307 0010 00       		.space	1
 1308              		.text
 1309              	.Letext0:
 1310              		.file 2 "c:\\program files (x86)\\cypress\\psoc creator\\4.2\\psoc creator\\import\\gnu\\arm\\5.4.
 1311              		.file 3 "c:\\program files (x86)\\cypress\\psoc creator\\4.2\\psoc creator\\import\\gnu\\arm\\5.4.
 1312              		.file 4 "Generated_Source\\PSoC5/Pin_1A.h"
 1313              		.file 5 "Generated_Source\\PSoC5/Pin_2A.h"
 1314              		.file 6 "Generated_Source\\PSoC5/Pin_1B.h"
 1315              		.file 7 "Generated_Source\\PSoC5/Pin_2B.h"
 1316              		.file 8 "Generated_Source\\PSoC5/isr_uart_rx.h"
 1317              		.file 9 "Generated_Source\\PSoC5/isr_timer.h"
 1318              		.file 10 "Generated_Source\\PSoC5/UART_1.h"
 1319              		.file 11 "Generated_Source\\PSoC5/PWM_1.h"
 1320              		.file 12 "Generated_Source\\PSoC5/Timer_1.h"
 1321              		.file 13 "Generated_Source\\PSoC5/CyLib.h"
 1322              		.file 14 "Generated_Source\\PSoC5/core_cm3.h"