ARM GAS  C:\Users\marti\AppData\Local\Temp\ccBYftoD.s 			page 1


   1              		.syntax unified
   2              		.cpu cortex-m3
   3              		.fpu softvfp
   4              		.eabi_attribute 20, 1
   5              		.eabi_attribute 21, 1
   6              		.eabi_attribute 23, 3
   7              		.eabi_attribute 24, 1
   8              		.eabi_attribute 25, 1
   9              		.eabi_attribute 26, 1
  10              		.eabi_attribute 30, 1
  11              		.eabi_attribute 34, 1
  12              		.eabi_attribute 18, 4
  13              		.thumb
  14              		.syntax unified
  15              		.file	"main.c"
  16              		.text
  17              	.Ltext0:
  18              		.cfi_sections	.debug_frame
  19              		.section	.text.main,"ax",%progbits
  20              		.align	2
  21              		.global	main
  22              		.thumb
  23              		.thumb_func
  24              		.type	main, %function
  25              	main:
  26              	.LFB63:
  27              		.file 1 "main.c"
   1:main.c        **** /* ========================================
   2:main.c        ****  *
   3:main.c        ****  * Copyright YOUR COMPANY, THE YEAR
   4:main.c        ****  * All Rights Reserved
   5:main.c        ****  * UNPUBLISHED, LICENSED SOFTWARE.
   6:main.c        ****  *
   7:main.c        ****  * CONFIDENTIAL AND PROPRIETARY INFORMATION
   8:main.c        ****  * WHICH IS THE PROPERTY OF your company.
   9:main.c        ****  *
  10:main.c        ****  * ========================================
  11:main.c        **** */
  12:main.c        **** #include "project.h"
  13:main.c        **** 
  14:main.c        **** CY_ISR_PROTO(ISR_UART_rx_handler);
  15:main.c        **** void handleByteReceived(uint8_t byteReceived);
  16:main.c        **** void decreaseSpeed(void);
  17:main.c        **** void increaseSpeed(void);
  18:main.c        **** void driveForwards(void);
  19:main.c        **** void driveBackwards(void);
  20:main.c        **** void stop(void);
  21:main.c        **** static int speed = 0;
  22:main.c        **** int main(void)
  23:main.c        **** {
  28              		.loc 1 23 0
  29              		.cfi_startproc
  30              		@ Volatile: function does not return.
  31              		@ args = 0, pretend = 0, frame = 0
  32              		@ frame_needed = 0, uses_anonymous_args = 0
  33 0000 08B5     		push	{r3, lr}
  34              		.cfi_def_cfa_offset 8
ARM GAS  C:\Users\marti\AppData\Local\Temp\ccBYftoD.s 			page 2


  35              		.cfi_offset 3, -8
  36              		.cfi_offset 14, -4
  24:main.c        ****     CyGlobalIntEnable; /* Enable global interrupts. */
  37              		.loc 1 24 0
  38              		.syntax unified
  39              	@ 24 "main.c" 1
  40 0002 62B6     		CPSIE   i
  41              	@ 0 "" 2
  25:main.c        **** 
  26:main.c        ****     /* Place your initialization/startup code here (e.g. MyInst_Start()) */
  27:main.c        ****     isr_uart_rx_StartEx(ISR_UART_rx_handler);
  42              		.loc 1 27 0
  43              		.thumb
  44              		.syntax unified
  45 0004 0C48     		ldr	r0, .L4
  46 0006 FFF7FEFF 		bl	isr_uart_rx_StartEx
  47              	.LVL0:
  28:main.c        ****     UART_1_Start();
  48              		.loc 1 28 0
  49 000a FFF7FEFF 		bl	UART_1_Start
  50              	.LVL1:
  29:main.c        ****     PWM_1_Start();
  51              		.loc 1 29 0
  52 000e FFF7FEFF 		bl	PWM_1_Start
  53              	.LVL2:
  30:main.c        ****     
  31:main.c        ****     UART_1_PutString("DC-Motor-PWM application started\r\n");
  54              		.loc 1 31 0
  55 0012 0A48     		ldr	r0, .L4+4
  56 0014 FFF7FEFF 		bl	UART_1_PutString
  57              	.LVL3:
  32:main.c        ****     UART_1_PutString("0: Stop\r\n");
  58              		.loc 1 32 0
  59 0018 0948     		ldr	r0, .L4+8
  60 001a FFF7FEFF 		bl	UART_1_PutString
  61              	.LVL4:
  33:main.c        ****     UART_1_PutString("1: Drive forwards\r\n");
  62              		.loc 1 33 0
  63 001e 0948     		ldr	r0, .L4+12
  64 0020 FFF7FEFF 		bl	UART_1_PutString
  65              	.LVL5:
  34:main.c        ****     UART_1_PutString("2: Drive backwards\r\n");
  66              		.loc 1 34 0
  67 0024 0848     		ldr	r0, .L4+16
  68 0026 FFF7FEFF 		bl	UART_1_PutString
  69              	.LVL6:
  35:main.c        ****     UART_1_PutString("q: Decrease speed\r\n");
  70              		.loc 1 35 0
  71 002a 0848     		ldr	r0, .L4+20
  72 002c FFF7FEFF 		bl	UART_1_PutString
  73              	.LVL7:
  36:main.c        ****     UART_1_PutString("w: Increase speed\r\n");
  74              		.loc 1 36 0
  75 0030 0748     		ldr	r0, .L4+24
  76 0032 FFF7FEFF 		bl	UART_1_PutString
  77              	.LVL8:
  78              	.L2:
ARM GAS  C:\Users\marti\AppData\Local\Temp\ccBYftoD.s 			page 3


  79 0036 FEE7     		b	.L2
  80              	.L5:
  81              		.align	2
  82              	.L4:
  83 0038 00000000 		.word	ISR_UART_rx_handler
  84 003c 00000000 		.word	.LC0
  85 0040 24000000 		.word	.LC1
  86 0044 30000000 		.word	.LC2
  87 0048 44000000 		.word	.LC3
  88 004c 5C000000 		.word	.LC4
  89 0050 70000000 		.word	.LC5
  90              		.cfi_endproc
  91              	.LFE63:
  92              		.size	main, .-main
  93              		.section	.text.decreaseSpeed,"ax",%progbits
  94              		.align	2
  95              		.global	decreaseSpeed
  96              		.thumb
  97              		.thumb_func
  98              		.type	decreaseSpeed, %function
  99              	decreaseSpeed:
 100              	.LFB66:
  37:main.c        **** 
  38:main.c        ****     for(;;)
  39:main.c        ****     {
  40:main.c        ****         /* Place your application code here. */
  41:main.c        ****     }
  42:main.c        **** }
  43:main.c        **** 
  44:main.c        **** CY_ISR(ISR_UART_rx_handler)
  45:main.c        **** {
  46:main.c        ****     uint8_t bytesToRead = UART_1_GetRxBufferSize();
  47:main.c        ****     while (bytesToRead > 0)
  48:main.c        ****     {
  49:main.c        ****         uint8_t byteReceived = UART_1_ReadRxData();
  50:main.c        ****         UART_1_WriteTxData(byteReceived); // echo back
  51:main.c        ****         
  52:main.c        ****         handleByteReceived(byteReceived);
  53:main.c        ****         
  54:main.c        ****         bytesToRead--;
  55:main.c        ****     }
  56:main.c        **** }
  57:main.c        **** 
  58:main.c        **** void handleByteReceived(uint8_t byteReceived)
  59:main.c        **** {
  60:main.c        ****     switch(byteReceived)
  61:main.c        ****     {
  62:main.c        ****         case 'q' :
  63:main.c        ****         {
  64:main.c        ****             decreaseSpeed();
  65:main.c        ****         }
  66:main.c        ****         break;
  67:main.c        ****         case 'w' :
  68:main.c        ****         {
  69:main.c        ****             increaseSpeed();
  70:main.c        ****         }
  71:main.c        ****         break;
ARM GAS  C:\Users\marti\AppData\Local\Temp\ccBYftoD.s 			page 4


  72:main.c        ****         case '1' :
  73:main.c        ****         {
  74:main.c        ****             driveForwards();
  75:main.c        ****         }
  76:main.c        ****         break;
  77:main.c        ****         case '2' :
  78:main.c        ****         {
  79:main.c        ****             driveBackwards();
  80:main.c        ****         }
  81:main.c        ****         break;
  82:main.c        ****         case '0' :
  83:main.c        ****         {
  84:main.c        ****             stop();
  85:main.c        ****             
  86:main.c        ****         }
  87:main.c        ****         break;
  88:main.c        ****         default :
  89:main.c        ****         {
  90:main.c        ****             // nothing
  91:main.c        ****         }
  92:main.c        ****         break;
  93:main.c        ****     }
  94:main.c        **** }
  95:main.c        **** 
  96:main.c        **** void decreaseSpeed()
  97:main.c        **** {
 101              		.loc 1 97 0
 102              		.cfi_startproc
 103              		@ args = 0, pretend = 0, frame = 0
 104              		@ frame_needed = 0, uses_anonymous_args = 0
 105 0000 08B5     		push	{r3, lr}
 106              		.cfi_def_cfa_offset 8
 107              		.cfi_offset 3, -8
 108              		.cfi_offset 14, -4
  98:main.c        ****     UART_1_PutString("Decreasing speed\r\n");
 109              		.loc 1 98 0
 110 0002 0648     		ldr	r0, .L9
 111 0004 FFF7FEFF 		bl	UART_1_PutString
 112              	.LVL9:
  99:main.c        ****     if(speed>0) {
 113              		.loc 1 99 0
 114 0008 054B     		ldr	r3, .L9+4
 115 000a 1868     		ldr	r0, [r3]
 116 000c 0028     		cmp	r0, #0
 117 000e 04DD     		ble	.L6
 100:main.c        ****     speed=speed-1;
 118              		.loc 1 100 0
 119 0010 0138     		subs	r0, r0, #1
 120 0012 1860     		str	r0, [r3]
 101:main.c        ****     PWM_1_WriteCompare(speed);
 121              		.loc 1 101 0
 122 0014 C0B2     		uxtb	r0, r0
 123 0016 FFF7FEFF 		bl	PWM_1_WriteCompare
 124              	.LVL10:
 125              	.L6:
 126 001a 08BD     		pop	{r3, pc}
 127              	.L10:
ARM GAS  C:\Users\marti\AppData\Local\Temp\ccBYftoD.s 			page 5


 128              		.align	2
 129              	.L9:
 130 001c 84000000 		.word	.LC6
 131 0020 00000000 		.word	.LANCHOR0
 132              		.cfi_endproc
 133              	.LFE66:
 134              		.size	decreaseSpeed, .-decreaseSpeed
 135              		.section	.text.increaseSpeed,"ax",%progbits
 136              		.align	2
 137              		.global	increaseSpeed
 138              		.thumb
 139              		.thumb_func
 140              		.type	increaseSpeed, %function
 141              	increaseSpeed:
 142              	.LFB67:
 102:main.c        ****     }
 103:main.c        ****     
 104:main.c        **** }
 105:main.c        **** 
 106:main.c        **** void increaseSpeed()
 107:main.c        **** {
 143              		.loc 1 107 0
 144              		.cfi_startproc
 145              		@ args = 0, pretend = 0, frame = 0
 146              		@ frame_needed = 0, uses_anonymous_args = 0
 147 0000 08B5     		push	{r3, lr}
 148              		.cfi_def_cfa_offset 8
 149              		.cfi_offset 3, -8
 150              		.cfi_offset 14, -4
 108:main.c        ****     UART_1_PutString("Increasing speed\r\n");
 151              		.loc 1 108 0
 152 0002 0648     		ldr	r0, .L14
 153 0004 FFF7FEFF 		bl	UART_1_PutString
 154              	.LVL11:
 109:main.c        ****     if(speed<10) {
 155              		.loc 1 109 0
 156 0008 054B     		ldr	r3, .L14+4
 157 000a 1868     		ldr	r0, [r3]
 158 000c 0928     		cmp	r0, #9
 159 000e 04DC     		bgt	.L11
 110:main.c        ****     speed=speed+1;
 160              		.loc 1 110 0
 161 0010 0130     		adds	r0, r0, #1
 162 0012 1860     		str	r0, [r3]
 111:main.c        ****     PWM_1_WriteCompare(speed);
 163              		.loc 1 111 0
 164 0014 C0B2     		uxtb	r0, r0
 165 0016 FFF7FEFF 		bl	PWM_1_WriteCompare
 166              	.LVL12:
 167              	.L11:
 168 001a 08BD     		pop	{r3, pc}
 169              	.L15:
 170              		.align	2
 171              	.L14:
 172 001c 98000000 		.word	.LC7
 173 0020 00000000 		.word	.LANCHOR0
 174              		.cfi_endproc
ARM GAS  C:\Users\marti\AppData\Local\Temp\ccBYftoD.s 			page 6


 175              	.LFE67:
 176              		.size	increaseSpeed, .-increaseSpeed
 177              		.section	.text.driveForwards,"ax",%progbits
 178              		.align	2
 179              		.global	driveForwards
 180              		.thumb
 181              		.thumb_func
 182              		.type	driveForwards, %function
 183              	driveForwards:
 184              	.LFB68:
 112:main.c        ****     }
 113:main.c        **** 
 114:main.c        **** }
 115:main.c        **** 
 116:main.c        **** void driveForwards()
 117:main.c        **** {
 185              		.loc 1 117 0
 186              		.cfi_startproc
 187              		@ args = 0, pretend = 0, frame = 0
 188              		@ frame_needed = 0, uses_anonymous_args = 0
 189 0000 08B5     		push	{r3, lr}
 190              		.cfi_def_cfa_offset 8
 191              		.cfi_offset 3, -8
 192              		.cfi_offset 14, -4
 118:main.c        ****     UART_1_PutString("Set direction: forwards\r\n");
 193              		.loc 1 118 0
 194 0002 0648     		ldr	r0, .L18
 195 0004 FFF7FEFF 		bl	UART_1_PutString
 196              	.LVL13:
 119:main.c        ****     Pin_EN_Write(1);
 197              		.loc 1 119 0
 198 0008 0120     		movs	r0, #1
 199 000a FFF7FEFF 		bl	Pin_EN_Write
 200              	.LVL14:
 120:main.c        ****     Pin_LN1_Write(1);
 201              		.loc 1 120 0
 202 000e 0120     		movs	r0, #1
 203 0010 FFF7FEFF 		bl	Pin_LN1_Write
 204              	.LVL15:
 121:main.c        ****     Pin_LN2_Write(0);
 205              		.loc 1 121 0
 206 0014 0020     		movs	r0, #0
 207 0016 FFF7FEFF 		bl	Pin_LN2_Write
 208              	.LVL16:
 209 001a 08BD     		pop	{r3, pc}
 210              	.L19:
 211              		.align	2
 212              	.L18:
 213 001c AC000000 		.word	.LC8
 214              		.cfi_endproc
 215              	.LFE68:
 216              		.size	driveForwards, .-driveForwards
 217              		.section	.text.driveBackwards,"ax",%progbits
 218              		.align	2
 219              		.global	driveBackwards
 220              		.thumb
 221              		.thumb_func
ARM GAS  C:\Users\marti\AppData\Local\Temp\ccBYftoD.s 			page 7


 222              		.type	driveBackwards, %function
 223              	driveBackwards:
 224              	.LFB69:
 122:main.c        ****     
 123:main.c        **** }
 124:main.c        **** 
 125:main.c        **** void driveBackwards()
 126:main.c        **** {
 225              		.loc 1 126 0
 226              		.cfi_startproc
 227              		@ args = 0, pretend = 0, frame = 0
 228              		@ frame_needed = 0, uses_anonymous_args = 0
 229 0000 08B5     		push	{r3, lr}
 230              		.cfi_def_cfa_offset 8
 231              		.cfi_offset 3, -8
 232              		.cfi_offset 14, -4
 127:main.c        ****     UART_1_PutString("Set direction: backwards\r\n");
 233              		.loc 1 127 0
 234 0002 0648     		ldr	r0, .L22
 235 0004 FFF7FEFF 		bl	UART_1_PutString
 236              	.LVL17:
 128:main.c        ****     Pin_EN_Write(1);
 237              		.loc 1 128 0
 238 0008 0120     		movs	r0, #1
 239 000a FFF7FEFF 		bl	Pin_EN_Write
 240              	.LVL18:
 129:main.c        ****     Pin_LN1_Write(0);
 241              		.loc 1 129 0
 242 000e 0020     		movs	r0, #0
 243 0010 FFF7FEFF 		bl	Pin_LN1_Write
 244              	.LVL19:
 130:main.c        ****     Pin_LN2_Write(1);
 245              		.loc 1 130 0
 246 0014 0120     		movs	r0, #1
 247 0016 FFF7FEFF 		bl	Pin_LN2_Write
 248              	.LVL20:
 249 001a 08BD     		pop	{r3, pc}
 250              	.L23:
 251              		.align	2
 252              	.L22:
 253 001c C8000000 		.word	.LC9
 254              		.cfi_endproc
 255              	.LFE69:
 256              		.size	driveBackwards, .-driveBackwards
 257              		.section	.text.stop,"ax",%progbits
 258              		.align	2
 259              		.global	stop
 260              		.thumb
 261              		.thumb_func
 262              		.type	stop, %function
 263              	stop:
 264              	.LFB70:
 131:main.c        **** }
 132:main.c        **** 
 133:main.c        **** void stop()
 134:main.c        **** {
 265              		.loc 1 134 0
ARM GAS  C:\Users\marti\AppData\Local\Temp\ccBYftoD.s 			page 8


 266              		.cfi_startproc
 267              		@ args = 0, pretend = 0, frame = 0
 268              		@ frame_needed = 0, uses_anonymous_args = 0
 269 0000 08B5     		push	{r3, lr}
 270              		.cfi_def_cfa_offset 8
 271              		.cfi_offset 3, -8
 272              		.cfi_offset 14, -4
 135:main.c        ****     UART_1_PutString("Stop\r\n");
 273              		.loc 1 135 0
 274 0002 0648     		ldr	r0, .L26
 275 0004 FFF7FEFF 		bl	UART_1_PutString
 276              	.LVL21:
 136:main.c        ****     Pin_EN_Write(1);
 277              		.loc 1 136 0
 278 0008 0120     		movs	r0, #1
 279 000a FFF7FEFF 		bl	Pin_EN_Write
 280              	.LVL22:
 137:main.c        ****     Pin_LN1_Write(1);
 281              		.loc 1 137 0
 282 000e 0120     		movs	r0, #1
 283 0010 FFF7FEFF 		bl	Pin_LN1_Write
 284              	.LVL23:
 138:main.c        ****     Pin_LN2_Write(1);
 285              		.loc 1 138 0
 286 0014 0120     		movs	r0, #1
 287 0016 FFF7FEFF 		bl	Pin_LN2_Write
 288              	.LVL24:
 289 001a 08BD     		pop	{r3, pc}
 290              	.L27:
 291              		.align	2
 292              	.L26:
 293 001c E4000000 		.word	.LC10
 294              		.cfi_endproc
 295              	.LFE70:
 296              		.size	stop, .-stop
 297              		.section	.text.handleByteReceived,"ax",%progbits
 298              		.align	2
 299              		.global	handleByteReceived
 300              		.thumb
 301              		.thumb_func
 302              		.type	handleByteReceived, %function
 303              	handleByteReceived:
 304              	.LFB65:
  59:main.c        ****     switch(byteReceived)
 305              		.loc 1 59 0
 306              		.cfi_startproc
 307              		@ args = 0, pretend = 0, frame = 0
 308              		@ frame_needed = 0, uses_anonymous_args = 0
 309              	.LVL25:
 310 0000 08B5     		push	{r3, lr}
 311              		.cfi_def_cfa_offset 8
 312              		.cfi_offset 3, -8
 313              		.cfi_offset 14, -4
  60:main.c        ****     {
 314              		.loc 1 60 0
 315 0002 3228     		cmp	r0, #50
 316 0004 13D0     		beq	.L30
ARM GAS  C:\Users\marti\AppData\Local\Temp\ccBYftoD.s 			page 9


 317 0006 04D8     		bhi	.L31
 318 0008 3028     		cmp	r0, #48
 319 000a 13D0     		beq	.L32
 320 000c 3128     		cmp	r0, #49
 321 000e 0BD0     		beq	.L33
 322 0010 08BD     		pop	{r3, pc}
 323              	.L31:
 324 0012 7128     		cmp	r0, #113
 325 0014 02D0     		beq	.L34
 326 0016 7728     		cmp	r0, #119
 327 0018 03D0     		beq	.L35
 328 001a 08BD     		pop	{r3, pc}
 329              	.L34:
  64:main.c        ****         }
 330              		.loc 1 64 0
 331 001c FFF7FEFF 		bl	decreaseSpeed
 332              	.LVL26:
  66:main.c        ****         case 'w' :
 333              		.loc 1 66 0
 334 0020 08BD     		pop	{r3, pc}
 335              	.LVL27:
 336              	.L35:
  69:main.c        ****         }
 337              		.loc 1 69 0
 338 0022 FFF7FEFF 		bl	increaseSpeed
 339              	.LVL28:
  71:main.c        ****         case '1' :
 340              		.loc 1 71 0
 341 0026 08BD     		pop	{r3, pc}
 342              	.LVL29:
 343              	.L33:
  74:main.c        ****         }
 344              		.loc 1 74 0
 345 0028 FFF7FEFF 		bl	driveForwards
 346              	.LVL30:
  76:main.c        ****         case '2' :
 347              		.loc 1 76 0
 348 002c 08BD     		pop	{r3, pc}
 349              	.LVL31:
 350              	.L30:
  79:main.c        ****         }
 351              		.loc 1 79 0
 352 002e FFF7FEFF 		bl	driveBackwards
 353              	.LVL32:
  81:main.c        ****         case '0' :
 354              		.loc 1 81 0
 355 0032 08BD     		pop	{r3, pc}
 356              	.LVL33:
 357              	.L32:
  84:main.c        ****             
 358              		.loc 1 84 0
 359 0034 FFF7FEFF 		bl	stop
 360              	.LVL34:
 361 0038 08BD     		pop	{r3, pc}
 362              		.cfi_endproc
 363              	.LFE65:
 364              		.size	handleByteReceived, .-handleByteReceived
ARM GAS  C:\Users\marti\AppData\Local\Temp\ccBYftoD.s 			page 10


 365 003a 00BF     		.section	.text.ISR_UART_rx_handler,"ax",%progbits
 366              		.align	2
 367              		.global	ISR_UART_rx_handler
 368              		.thumb
 369              		.thumb_func
 370              		.type	ISR_UART_rx_handler, %function
 371              	ISR_UART_rx_handler:
 372              	.LFB64:
  45:main.c        ****     uint8_t bytesToRead = UART_1_GetRxBufferSize();
 373              		.loc 1 45 0
 374              		.cfi_startproc
 375              		@ args = 0, pretend = 0, frame = 0
 376              		@ frame_needed = 0, uses_anonymous_args = 0
 377 0000 38B5     		push	{r3, r4, r5, lr}
 378              		.cfi_def_cfa_offset 16
 379              		.cfi_offset 3, -16
 380              		.cfi_offset 4, -12
 381              		.cfi_offset 5, -8
 382              		.cfi_offset 14, -4
  46:main.c        ****     while (bytesToRead > 0)
 383              		.loc 1 46 0
 384 0002 FFF7FEFF 		bl	UART_1_GetRxBufferSize
 385              	.LVL35:
 386 0006 0446     		mov	r4, r0
 387              	.LVL36:
  47:main.c        ****     {
 388              		.loc 1 47 0
 389 0008 09E0     		b	.L38
 390              	.L39:
 391              	.LBB2:
  49:main.c        ****         UART_1_WriteTxData(byteReceived); // echo back
 392              		.loc 1 49 0
 393 000a FFF7FEFF 		bl	UART_1_ReadRxData
 394              	.LVL37:
 395 000e 0546     		mov	r5, r0
 396              	.LVL38:
  50:main.c        ****         
 397              		.loc 1 50 0
 398 0010 FFF7FEFF 		bl	UART_1_WriteTxData
 399              	.LVL39:
  52:main.c        ****         
 400              		.loc 1 52 0
 401 0014 2846     		mov	r0, r5
 402 0016 FFF7FEFF 		bl	handleByteReceived
 403              	.LVL40:
  54:main.c        ****     }
 404              		.loc 1 54 0
 405 001a 013C     		subs	r4, r4, #1
 406              	.LVL41:
 407 001c E4B2     		uxtb	r4, r4
 408              	.LVL42:
 409              	.L38:
 410              	.LBE2:
  47:main.c        ****     {
 411              		.loc 1 47 0
 412 001e 002C     		cmp	r4, #0
 413 0020 F3D1     		bne	.L39
ARM GAS  C:\Users\marti\AppData\Local\Temp\ccBYftoD.s 			page 11


  56:main.c        **** 
 414              		.loc 1 56 0
 415 0022 38BD     		pop	{r3, r4, r5, pc}
 416              		.cfi_endproc
 417              	.LFE64:
 418              		.size	ISR_UART_rx_handler, .-ISR_UART_rx_handler
 419              		.section	.rodata.str1.4,"aMS",%progbits,1
 420              		.align	2
 421              	.LC0:
 422 0000 44432D4D 		.ascii	"DC-Motor-PWM application started\015\012\000"
 422      6F746F72 
 422      2D50574D 
 422      20617070 
 422      6C696361 
 423 0023 00       		.space	1
 424              	.LC1:
 425 0024 303A2053 		.ascii	"0: Stop\015\012\000"
 425      746F700D 
 425      0A00
 426 002e 0000     		.space	2
 427              	.LC2:
 428 0030 313A2044 		.ascii	"1: Drive forwards\015\012\000"
 428      72697665 
 428      20666F72 
 428      77617264 
 428      730D0A00 
 429              	.LC3:
 430 0044 323A2044 		.ascii	"2: Drive backwards\015\012\000"
 430      72697665 
 430      20626163 
 430      6B776172 
 430      64730D0A 
 431 0059 000000   		.space	3
 432              	.LC4:
 433 005c 713A2044 		.ascii	"q: Decrease speed\015\012\000"
 433      65637265 
 433      61736520 
 433      73706565 
 433      640D0A00 
 434              	.LC5:
 435 0070 773A2049 		.ascii	"w: Increase speed\015\012\000"
 435      6E637265 
 435      61736520 
 435      73706565 
 435      640D0A00 
 436              	.LC6:
 437 0084 44656372 		.ascii	"Decreasing speed\015\012\000"
 437      65617369 
 437      6E672073 
 437      70656564 
 437      0D0A00
 438 0097 00       		.space	1
 439              	.LC7:
 440 0098 496E6372 		.ascii	"Increasing speed\015\012\000"
 440      65617369 
 440      6E672073 
 440      70656564 
ARM GAS  C:\Users\marti\AppData\Local\Temp\ccBYftoD.s 			page 12


 440      0D0A00
 441 00ab 00       		.space	1
 442              	.LC8:
 443 00ac 53657420 		.ascii	"Set direction: forwards\015\012\000"
 443      64697265 
 443      6374696F 
 443      6E3A2066 
 443      6F727761 
 444 00c6 0000     		.space	2
 445              	.LC9:
 446 00c8 53657420 		.ascii	"Set direction: backwards\015\012\000"
 446      64697265 
 446      6374696F 
 446      6E3A2062 
 446      61636B77 
 447 00e3 00       		.space	1
 448              	.LC10:
 449 00e4 53746F70 		.ascii	"Stop\015\012\000"
 449      0D0A00
 450              		.bss
 451              		.align	2
 452              		.set	.LANCHOR0,. + 0
 453              		.type	speed, %object
 454              		.size	speed, 4
 455              	speed:
 456 0000 00000000 		.space	4
 457              		.text
 458              	.Letext0:
 459              		.file 2 "c:\\program files (x86)\\cypress\\psoc creator\\4.2\\psoc creator\\import\\gnu\\arm\\5.4.
 460              		.file 3 "c:\\program files (x86)\\cypress\\psoc creator\\4.2\\psoc creator\\import\\gnu\\arm\\5.4.
 461              		.file 4 "Generated_Source\\PSoC5/isr_uart_rx.h"
 462              		.file 5 "Generated_Source\\PSoC5/UART_1.h"
 463              		.file 6 "Generated_Source\\PSoC5/PWM_1.h"
 464              		.file 7 "Generated_Source\\PSoC5/Pin_EN.h"
 465              		.file 8 "Generated_Source\\PSoC5/Pin_LN1.h"
 466              		.file 9 "Generated_Source\\PSoC5/Pin_LN2.h"
 467              		.file 10 "Generated_Source\\PSoC5/core_cm3.h"